TI ARM Assembler PC v5.2.5 Mon Mar 28 00:41:02 2016

Tools Copyright (c) 1996-2015 Texas Instruments Incorporated
Task_PID.asm                                                         PAGE    1

       1                    ;******************************************************************************
       2                    ;* TI ARM C/C++ Codegen                                             PC v5.2.5 *
       3                    ;* Date/Time created: Mon Mar 28 00:41:02 2016                                *
       4                    ;******************************************************************************
       5                            .compiler_opts --abi=eabi --arm_vmrs_si_workaround=off --code_state=16 --diag_wrap=off --disab
       6 00000000                   .thumb
       7                    
       8                    $C$DW$CU        .dwtag  DW_TAG_compile_unit
       9                            .dwattr $C$DW$CU, DW_AT_name("../Tasks/Task_PID.c")
      10                            .dwattr $C$DW$CU, DW_AT_producer("TI TI ARM C/C++ Codegen PC v5.2.5 Copyright (c) 1996-2015 Te
      11                            .dwattr $C$DW$CU, DW_AT_TI_version(0x01)
      12                            .dwattr $C$DW$CU, DW_AT_comp_dir("C:\Users\DreyCow\workspace\TI_ARM_Tiva_Projects_EECS_690_Sp1
      13                    
      14                    $C$DW$1 .dwtag  DW_TAG_subprogram, DW_AT_name("vTaskDelay")
      15                            .dwattr $C$DW$1, DW_AT_TI_symbol_name("vTaskDelay")
      16                            .dwattr $C$DW$1, DW_AT_declaration
      17                            .dwattr $C$DW$1, DW_AT_external
      18                            .dwattr $C$DW$1, DW_AT_decl_file("C:/Users/DreyCow/workspace/TI_ARM_Tiva_Projects_EECS_690_Sp1
      19                            .dwattr $C$DW$1, DW_AT_decl_line(0x22b)
      20                            .dwattr $C$DW$1, DW_AT_decl_column(0x06)
      21                    $C$DW$2 .dwtag  DW_TAG_formal_parameter
      22                            .dwattr $C$DW$2, DW_AT_type(*$C$DW$T$76)
      23                            .dwendtag $C$DW$1
      24                    
      25                    
      26                    $C$DW$3 .dwtag  DW_TAG_subprogram, DW_AT_name("xQueueGenericSend")
      27                            .dwattr $C$DW$3, DW_AT_TI_symbol_name("xQueueGenericSend")
      28                            .dwattr $C$DW$3, DW_AT_type(*$C$DW$T$57)
      29                            .dwattr $C$DW$3, DW_AT_declaration
      30                            .dwattr $C$DW$3, DW_AT_external
      31                            .dwattr $C$DW$3, DW_AT_decl_file("C:/Users/DreyCow/workspace/TI_ARM_Tiva_Projects_EECS_690_Sp1
      32                            .dwattr $C$DW$3, DW_AT_decl_line(0x250)
      33                            .dwattr $C$DW$3, DW_AT_decl_column(0x0c)
      34                    $C$DW$4 .dwtag  DW_TAG_formal_parameter
      35                            .dwattr $C$DW$4, DW_AT_type(*$C$DW$T$65)
      36                    $C$DW$5 .dwtag  DW_TAG_formal_parameter
      37                            .dwattr $C$DW$5, DW_AT_type(*$C$DW$T$81)
      38                    $C$DW$6 .dwtag  DW_TAG_formal_parameter
      39                            .dwattr $C$DW$6, DW_AT_type(*$C$DW$T$35)
      40                    $C$DW$7 .dwtag  DW_TAG_formal_parameter
      41                            .dwattr $C$DW$7, DW_AT_type(*$C$DW$T$94)
      42                            .dwendtag $C$DW$3
      43                    
      44                    
      45                    $C$DW$8 .dwtag  DW_TAG_subprogram, DW_AT_name("xQueueGenericReceive")
      46                            .dwattr $C$DW$8, DW_AT_TI_symbol_name("xQueueGenericReceive")
      47                            .dwattr $C$DW$8, DW_AT_type(*$C$DW$T$57)
      48                            .dwattr $C$DW$8, DW_AT_declaration
      49                            .dwattr $C$DW$8, DW_AT_external
      50                            .dwattr $C$DW$8, DW_AT_decl_file("C:/Users/DreyCow/workspace/TI_ARM_Tiva_Projects_EECS_690_Sp1
      51                            .dwattr $C$DW$8, DW_AT_decl_line(0x391)
      52                            .dwattr $C$DW$8, DW_AT_decl_column(0x0c)
      53                    $C$DW$9 .dwtag  DW_TAG_formal_parameter
      54                            .dwattr $C$DW$9, DW_AT_type(*$C$DW$T$65)
      55                    $C$DW$10        .dwtag  DW_TAG_formal_parameter
TI ARM Assembler PC v5.2.5 Mon Mar 28 00:41:02 2016

Tools Copyright (c) 1996-2015 Texas Instruments Incorporated
Task_PID.asm                                                         PAGE    2

      56                            .dwattr $C$DW$10, DW_AT_type(*$C$DW$T$75)
      57                    $C$DW$11        .dwtag  DW_TAG_formal_parameter
      58                            .dwattr $C$DW$11, DW_AT_type(*$C$DW$T$35)
      59                    $C$DW$12        .dwtag  DW_TAG_formal_parameter
      60                            .dwattr $C$DW$12, DW_AT_type(*$C$DW$T$94)
      61                            .dwendtag $C$DW$8
      62                    
      63                    
      64                    $C$DW$13        .dwtag  DW_TAG_subprogram, DW_AT_name("xQueueGenericCreate")
      65                            .dwattr $C$DW$13, DW_AT_TI_symbol_name("xQueueGenericCreate")
      66                            .dwattr $C$DW$13, DW_AT_type(*$C$DW$T$65)
      67                            .dwattr $C$DW$13, DW_AT_declaration
      68                            .dwattr $C$DW$13, DW_AT_external
      69                            .dwattr $C$DW$13, DW_AT_decl_file("C:/Users/DreyCow/workspace/TI_ARM_Tiva_Projects_EECS_690_Sp
      70                            .dwattr $C$DW$13, DW_AT_decl_line(0x606)
      71                            .dwattr $C$DW$13, DW_AT_decl_column(0x0f)
      72                    $C$DW$14        .dwtag  DW_TAG_formal_parameter
      73                            .dwattr $C$DW$14, DW_AT_type(*$C$DW$T$69)
      74                    $C$DW$15        .dwtag  DW_TAG_formal_parameter
      75                            .dwattr $C$DW$15, DW_AT_type(*$C$DW$T$69)
      76                    $C$DW$16        .dwtag  DW_TAG_formal_parameter
      77                            .dwattr $C$DW$16, DW_AT_type(*$C$DW$T$70)
      78                            .dwendtag $C$DW$13
      79                    
      80                    $C$DW$17        .dwtag  DW_TAG_variable, DW_AT_name("xPortSysTickCount")
      81                            .dwattr $C$DW$17, DW_AT_TI_symbol_name("xPortSysTickCount")
      82                            .dwattr $C$DW$17, DW_AT_type(*$C$DW$T$112)
      83                            .dwattr $C$DW$17, DW_AT_declaration
      84                            .dwattr $C$DW$17, DW_AT_external
      85                            .dwattr $C$DW$17, DW_AT_decl_file("../Tasks/Task_PID.c")
      86                            .dwattr $C$DW$17, DW_AT_decl_line(0x21)
      87                            .dwattr $C$DW$17, DW_AT_decl_column(0x1a)
      88                    $C$DW$18        .dwtag  DW_TAG_variable, DW_AT_name("dataQueue")
      89                            .dwattr $C$DW$18, DW_AT_TI_symbol_name("dataQueue")
      90                            .dwattr $C$DW$18, DW_AT_type(*$C$DW$T$66)
      91                            .dwattr $C$DW$18, DW_AT_declaration
      92                            .dwattr $C$DW$18, DW_AT_external
      93                            .dwattr $C$DW$18, DW_AT_decl_file("../Tasks/Task_PID.c")
      94                            .dwattr $C$DW$18, DW_AT_decl_line(0x22)
      95                            .dwattr $C$DW$18, DW_AT_decl_column(0x1e)
      96                    $C$DW$19        .dwtag  DW_TAG_variable, DW_AT_name("xSemaphoreTempData")
      97                            .dwattr $C$DW$19, DW_AT_TI_symbol_name("xSemaphoreTempData")
      98                            .dwattr $C$DW$19, DW_AT_type(*$C$DW$T$68)
      99                            .dwattr $C$DW$19, DW_AT_declaration
     100                            .dwattr $C$DW$19, DW_AT_external
     101                            .dwattr $C$DW$19, DW_AT_decl_file("../Tasks/Task_PID.c")
     102                            .dwattr $C$DW$19, DW_AT_decl_line(0x23)
     103                            .dwattr $C$DW$19, DW_AT_decl_column(0x23)
     104                    $C$DW$20        .dwtag  DW_TAG_variable, DW_AT_name("xSemaphoreData")
     105                            .dwattr $C$DW$20, DW_AT_TI_symbol_name("xSemaphoreData")
     106                            .dwattr $C$DW$20, DW_AT_type(*$C$DW$T$68)
     107                            .dwattr $C$DW$20, DW_AT_declaration
     108                            .dwattr $C$DW$20, DW_AT_external
     109                            .dwattr $C$DW$20, DW_AT_decl_file("../Tasks/Task_PID.c")
     110                            .dwattr $C$DW$20, DW_AT_decl_line(0x24)
TI ARM Assembler PC v5.2.5 Mon Mar 28 00:41:02 2016

Tools Copyright (c) 1996-2015 Texas Instruments Incorporated
Task_PID.asm                                                         PAGE    3

     111                            .dwattr $C$DW$20, DW_AT_decl_column(0x23)
     112                            .global PIDQueue
     113                            .common PIDQueue,4,4
     114                    $C$DW$21        .dwtag  DW_TAG_variable, DW_AT_name("PIDQueue")
     115                            .dwattr $C$DW$21, DW_AT_TI_symbol_name("PIDQueue")
     116                            .dwattr $C$DW$21, DW_AT_location[DW_OP_addr PIDQueue]
     117                            .dwattr $C$DW$21, DW_AT_type(*$C$DW$T$65)
     118                            .dwattr $C$DW$21, DW_AT_external
     119                            .dwattr $C$DW$21, DW_AT_decl_file("../Tasks/Task_PID.c")
     120                            .dwattr $C$DW$21, DW_AT_decl_line(0x25)
     121                            .dwattr $C$DW$21, DW_AT_decl_column(0x0e)
     122 00000000                   .sect   ".const"
     123                            .align  4
     124                            .elfsym ||$P$T0$1||,SYM_SIZE(32)
     125 00000000           ||$P$T0$1||:
     126 00000000 00000050          .bits   80,8                    ; $P$T0$1.name[0] @ 0
     127 00000000 00004950          .bits   73,8                    ; $P$T0$1.name[1] @ 8
     128 00000000 00444950          .bits   68,8                    ; $P$T0$1.name[2] @ 16
     129 00000000 20444950          .bits   32,8                    ; $P$T0$1.name[3] @ 24
     130 00000004 00000076          .bits   118,8                   ; $P$T0$1.name[4] @ 32
     131 00000004 00006176          .bits   97,8                    ; $P$T0$1.name[5] @ 40
     132 00000004 006C6176          .bits   108,8                   ; $P$T0$1.name[6] @ 48
     133 00000004 756C6176          .bits   117,8                   ; $P$T0$1.name[7] @ 56
     134 00000008 00000065          .bits   101,8                   ; $P$T0$1.name[8] @ 64
     135 00000008 00000065          .bits   0,8                     ; $P$T0$1.name[9] @ 72
     136 0000000a                   .space  10
     137 00000014 0000012C          .bits   300,32                  ; $P$T0$1.id @ 160
     138 00000018 00000000          .bits   0,32                    ; $P$T0$1.time @ 192
     139 0000001c 00000000          .word   000000000h      ; $P$T0$1.val1 @ 224 (0)
     140                    
     141                    $C$DW$22        .dwtag  DW_TAG_variable, DW_AT_name("$P$T0$1")
     142                            .dwattr $C$DW$22, DW_AT_TI_symbol_name("$P$T0$1")
     143                            .dwattr $C$DW$22, DW_AT_type(*$C$DW$T$140)
     144                            .dwattr $C$DW$22, DW_AT_location[DW_OP_addr ||$P$T0$1||]
     145                            .dwattr $C$DW$22, DW_AT_decl_file("../Tasks/Task_PID.c")
     146                            .dwattr $C$DW$22, DW_AT_decl_line(0x51)
     147                            .dwattr $C$DW$22, DW_AT_decl_column(0x10)
     148                    ;       C:\ti\ccsv6\tools\compiler\ti-cgt-arm_5.2.5\bin\armacpia.exe -@C:\\Users\\DreyCow\\AppData\\Lo
     149 00000000                   .sect   ".text"
     150                            .clink
     151                            .thumbfunc Task_PID
     152 00000000                   .thumb
     153                            .global Task_PID
     154                    
     155                    $C$DW$23        .dwtag  DW_TAG_subprogram, DW_AT_name("Task_PID")
     156                            .dwattr $C$DW$23, DW_AT_low_pc(Task_PID)
     157                            .dwattr $C$DW$23, DW_AT_high_pc(0x00)
     158                            .dwattr $C$DW$23, DW_AT_TI_symbol_name("Task_PID")
     159                            .dwattr $C$DW$23, DW_AT_external
     160                            .dwattr $C$DW$23, DW_AT_TI_begin_file("../Tasks/Task_PID.c")
     161                            .dwattr $C$DW$23, DW_AT_TI_begin_line(0x27)
     162                            .dwattr $C$DW$23, DW_AT_TI_begin_column(0x0d)
     163                            .dwattr $C$DW$23, DW_AT_decl_file("../Tasks/Task_PID.c")
     164                            .dwattr $C$DW$23, DW_AT_decl_line(0x27)
     165                            .dwattr $C$DW$23, DW_AT_decl_column(0x0d)
TI ARM Assembler PC v5.2.5 Mon Mar 28 00:41:02 2016

Tools Copyright (c) 1996-2015 Texas Instruments Incorporated
Task_PID.asm                                                         PAGE    4

     166                            .dwattr $C$DW$23, DW_AT_TI_max_frame_size(0x78)
     167                            .dwpsn  file "../Tasks/Task_PID.c",line 39,column 44,is_stmt,address Task_PID,isa 1
     168                    
     169                            .dwfde $C$DW$CIE, Task_PID
     170                    $C$DW$24        .dwtag  DW_TAG_formal_parameter, DW_AT_name("pvParameters")
     171                            .dwattr $C$DW$24, DW_AT_TI_symbol_name("pvParameters")
     172                            .dwattr $C$DW$24, DW_AT_type(*$C$DW$T$3)
     173                            .dwattr $C$DW$24, DW_AT_location[DW_OP_reg0]
     174                    
     175                    ;*****************************************************************************
     176                    ;* FUNCTION NAME: Task_PID                                                   *
     177                    ;*                                                                           *
     178                    ;*   Regs Modified     : A1,A2,A3,A4,V1,V2,V9,SP,LR,SR,D0,D0_hi,D1,D1_hi,D2, *
     179                    ;*                           D2_hi,D3,D3_hi,D4,D4_hi,D5,D5_hi,D6,D6_hi,D7,   *
     180                    ;*                           D7_hi,FPEXC,FPSCR                               *
     181                    ;*   Regs Used         : A1,A2,A3,A4,V1,V2,V9,SP,LR,SR,D0,D0_hi,D1,D1_hi,D2, *
     182                    ;*                           D2_hi,D3,D3_hi,D4,D4_hi,D5,D5_hi,D6,D6_hi,D7,   *
     183                    ;*                           D7_hi,FPEXC,FPSCR                               *
     184                    ;*   Local Frame Size  : 0 Args + 108 Auto + 12 Save = 120 byte              *
     185                    ;*****************************************************************************
     186 00000000           Task_PID:
     187                    ;* --------------------------------------------------------------------------*
     188                            .dwcfi  cfa_offset, 0
     189 00000000 B530              PUSH      {V1, V2, LR}          ; [DPU_3_PIPE]  ; [ORIG 16-BIT INS]
     190                            .dwcfi  cfa_offset, 12
     191                            .dwcfi  save_reg_to_mem, 14, -4
     192                            .dwcfi  save_reg_to_mem, 5, -8
     193                            .dwcfi  save_reg_to_mem, 4, -12
     194 00000002 0D6CF1AD          SUB       SP, SP, #108          ; [DPU_3_PIPE]  ; [KEEP 32-BIT INS]
     195                            .dwcfi  cfa_offset, 120
     196                    $C$DW$25        .dwtag  DW_TAG_variable, DW_AT_name("pvParameters")
     197                            .dwattr $C$DW$25, DW_AT_TI_symbol_name("pvParameters")
     198                            .dwattr $C$DW$25, DW_AT_type(*$C$DW$T$3)
     199                            .dwattr $C$DW$25, DW_AT_location[DW_OP_breg13 0]
     200                    $C$DW$26        .dwtag  DW_TAG_variable, DW_AT_name("setpoint")
     201                            .dwattr $C$DW$26, DW_AT_TI_symbol_name("setpoint")
     202                            .dwattr $C$DW$26, DW_AT_type(*$C$DW$T$16)
     203                            .dwattr $C$DW$26, DW_AT_location[DW_OP_breg13 4]
     204                    $C$DW$27        .dwtag  DW_TAG_variable, DW_AT_name("sum")
     205                            .dwattr $C$DW$27, DW_AT_TI_symbol_name("sum")
     206                            .dwattr $C$DW$27, DW_AT_type(*$C$DW$T$16)
     207                            .dwattr $C$DW$27, DW_AT_location[DW_OP_breg13 8]
     208                    $C$DW$28        .dwtag  DW_TAG_variable, DW_AT_name("olddiff")
     209                            .dwattr $C$DW$28, DW_AT_TI_symbol_name("olddiff")
     210                            .dwattr $C$DW$28, DW_AT_type(*$C$DW$T$16)
     211                            .dwattr $C$DW$28, DW_AT_location[DW_OP_breg13 12]
     212                    $C$DW$29        .dwtag  DW_TAG_variable, DW_AT_name("kp")
     213                            .dwattr $C$DW$29, DW_AT_TI_symbol_name("kp")
     214                            .dwattr $C$DW$29, DW_AT_type(*$C$DW$T$16)
     215                            .dwattr $C$DW$29, DW_AT_location[DW_OP_breg13 16]
     216                    $C$DW$30        .dwtag  DW_TAG_variable, DW_AT_name("kd")
     217                            .dwattr $C$DW$30, DW_AT_TI_symbol_name("kd")
     218                            .dwattr $C$DW$30, DW_AT_type(*$C$DW$T$16)
     219                            .dwattr $C$DW$30, DW_AT_location[DW_OP_breg13 20]
     220                    $C$DW$31        .dwtag  DW_TAG_variable, DW_AT_name("ki")
TI ARM Assembler PC v5.2.5 Mon Mar 28 00:41:02 2016

Tools Copyright (c) 1996-2015 Texas Instruments Incorporated
Task_PID.asm                                                         PAGE    5

     221                            .dwattr $C$DW$31, DW_AT_TI_symbol_name("ki")
     222                            .dwattr $C$DW$31, DW_AT_type(*$C$DW$T$16)
     223                            .dwattr $C$DW$31, DW_AT_location[DW_OP_breg13 24]
     224                    $C$DW$32        .dwtag  DW_TAG_variable, DW_AT_name("recievedPacket")
     225                            .dwattr $C$DW$32, DW_AT_TI_symbol_name("recievedPacket")
     226                            .dwattr $C$DW$32, DW_AT_type(*$C$DW$T$138)
     227                            .dwattr $C$DW$32, DW_AT_location[DW_OP_breg13 28]
     228 00000006 9000              STR       A1, [SP, #0]          ; [DPU_3_PIPE] |39|  ; [ORIG 16-BIT INS]
     229                            .dwpsn  file "../Tasks/Task_PID.c",line 41,column 17,is_stmt,isa 1
     230 00000008 4845              LDR       A1, $C$FL1            ; [DPU_3_PIPE] |41|  ; [ORIG 16-BIT INS]
     231 0000000a 9001              STR       A1, [SP, #4]          ; [DPU_3_PIPE] |41|  ; [ORIG 16-BIT INS]
     232                            .dwpsn  file "../Tasks/Task_PID.c",line 42,column 12,is_stmt,isa 1
     233 0000000c 4845              LDR       A1, $C$FL2            ; [DPU_3_PIPE] |42|  ; [ORIG 16-BIT INS]
     234 0000000e 9002              STR       A1, [SP, #8]          ; [DPU_3_PIPE] |42|  ; [ORIG 16-BIT INS]
     235                            .dwpsn  file "../Tasks/Task_PID.c",line 43,column 16,is_stmt,isa 1
     236 00000010 4844              LDR       A1, $C$FL2            ; [DPU_3_PIPE] |43|  ; [ORIG 16-BIT INS]
     237 00000012 9003              STR       A1, [SP, #12]         ; [DPU_3_PIPE] |43|  ; [ORIG 16-BIT INS]
     238                            .dwpsn  file "../Tasks/Task_PID.c",line 44,column 11,is_stmt,isa 1
     239 00000014 4844              LDR       A1, $C$FL3            ; [DPU_3_PIPE] |44|  ; [ORIG 16-BIT INS]
     240 00000016 9004              STR       A1, [SP, #16]         ; [DPU_3_PIPE] |44|  ; [ORIG 16-BIT INS]
     241                            .dwpsn  file "../Tasks/Task_PID.c",line 45,column 11,is_stmt,isa 1
     242 00000018 4842              LDR       A1, $C$FL2            ; [DPU_3_PIPE] |45|  ; [ORIG 16-BIT INS]
     243 0000001a 9005              STR       A1, [SP, #20]         ; [DPU_3_PIPE] |45|  ; [ORIG 16-BIT INS]
     244                            .dwpsn  file "../Tasks/Task_PID.c",line 46,column 11,is_stmt,isa 1
     245 0000001c 4841              LDR       A1, $C$FL2            ; [DPU_3_PIPE] |46|  ; [ORIG 16-BIT INS]
     246 0000001e 9006              STR       A1, [SP, #24]         ; [DPU_3_PIPE] |46|  ; [ORIG 16-BIT INS]
     247                            .dwpsn  file "../Tasks/Task_PID.c",line 47,column 2,is_stmt,isa 1
     248 00000020 2120              MOVS      A2, #32               ; [DPU_3_PIPE] |47|  ; [ORIG 16-BIT INS]
     249 00000022 2200              MOVS      A3, #0                ; [DPU_3_PIPE] |47|  ; [ORIG 16-BIT INS]
     250 00000024 2014              MOVS      A1, #20               ; [DPU_3_PIPE] |47|  ; [ORIG 16-BIT INS]
     251                    $C$DW$33        .dwtag  DW_TAG_TI_branch
     252                            .dwattr $C$DW$33, DW_AT_low_pc(0x00)
     253                            .dwattr $C$DW$33, DW_AT_name("xQueueGenericCreate")
     254                            .dwattr $C$DW$33, DW_AT_TI_call
     255 00000026 FFFEF7FF!         BL        xQueueGenericCreate   ; [DPU_3_PIPE] |47|  ; [KEEP 32-BIT INS]
     256                            ; CALL OCCURS {xQueueGenericCreate }  ; [] |47| 
     257 0000002a 4940              LDR       A2, $C$CON1           ; [DPU_3_PIPE] |47|  ; [ORIG 16-BIT INS]
     258 0000002c 6008              STR       A1, [A2, #0]          ; [DPU_3_PIPE] |47|  ; [ORIG 16-BIT INS]
     259                            .dwpsn  file "../Tasks/Task_PID.c",line 52,column 2,is_stmt,isa 1
     260 0000002e 4940              LDR       A2, $C$CON2           ; [DPU_3_PIPE] |52|  ; [ORIG 16-BIT INS]
     261 00000030 2000              MOVS      A1, #0                ; [DPU_3_PIPE] |52|  ; [ORIG 16-BIT INS]
     262 00000032 6008              STR       A1, [A2, #0]          ; [DPU_3_PIPE] |52|  ; [ORIG 16-BIT INS]
     263                            .dwpsn  file "../Tasks/Task_PID.c",line 54,column 2,is_stmt,isa 1
     264 00000034 707AF44F          MOV       A1, #1000             ; [DPU_3_PIPE] |54|  ; [KEEP 32-BIT INS]
     265                    $C$DW$34        .dwtag  DW_TAG_TI_branch
     266                            .dwattr $C$DW$34, DW_AT_low_pc(0x00)
     267                            .dwattr $C$DW$34, DW_AT_name("vTaskDelay")
     268                            .dwattr $C$DW$34, DW_AT_TI_call
     269 00000038 FFFEF7FF!         BL        vTaskDelay            ; [DPU_3_PIPE] |54|  ; [KEEP 32-BIT INS]
     270                            ; CALL OCCURS {vTaskDelay }      ; [] |54| 
     271                            .dwpsn  file "../Tasks/Task_PID.c",line 55,column 8,is_stmt,isa 1
     272                    ;* --------------------------------------------------------------------------*
     273                    ;*   BEGIN LOOP ||$C$L1||
     274                    ;*
     275                    ;*   Loop source line                : 55
TI ARM Assembler PC v5.2.5 Mon Mar 28 00:41:02 2016

Tools Copyright (c) 1996-2015 Texas Instruments Incorporated
Task_PID.asm                                                         PAGE    6

     276                    ;*   Loop closing brace source line  : 93
     277                    ;*   Known Minimum Trip Count        : 1
     278                    ;*   Known Maximum Trip Count        : 4294967295
     279                    ;*   Known Max Trip Count Factor     : 1
     280                    ;* --------------------------------------------------------------------------*
     281 0000003c           ||$C$L1||:    
     282                            .dwpsn  file "../Tasks/Task_PID.c",line 57,column 3,is_stmt,isa 1
     283 0000003c 483D              LDR       A1, $C$CON3           ; [DPU_3_PIPE] |57|  ; [ORIG 16-BIT INS]
     284 0000003e 6800              LDR       A1, [A1, #0]          ; [DPU_3_PIPE] |57|  ; [ORIG 16-BIT INS]
     285 00000040 2100              MOVS      A2, #0                ; [DPU_3_PIPE] |57|  ; [ORIG 16-BIT INS]
     286 00000042 2264              MOVS      A3, #100              ; [DPU_3_PIPE] |57|  ; [ORIG 16-BIT INS]
     287 00000044 2300              MOVS      A4, #0                ; [DPU_3_PIPE] |57|  ; [ORIG 16-BIT INS]
     288                    $C$DW$35        .dwtag  DW_TAG_TI_branch
     289                            .dwattr $C$DW$35, DW_AT_low_pc(0x00)
     290                            .dwattr $C$DW$35, DW_AT_name("xQueueGenericReceive")
     291                            .dwattr $C$DW$35, DW_AT_TI_call
     292 00000046 FFFEF7FF!         BL        xQueueGenericReceive  ; [DPU_3_PIPE] |57|  ; [KEEP 32-BIT INS]
     293                            ; CALL OCCURS {xQueueGenericReceive }  ; [] |57| 
     294 0000004a 2801              CMP       A1, #1                ; [DPU_3_PIPE] |57|  ; [ORIG 16-BIT INS]
     295 0000004c D163              BNE       ||$C$L5||             ; [DPU_3_PIPE] |57|  ; [ORIG 16-BIT INS]
     296                            ; BRANCHCC OCCURS {||$C$L5||}    ; [] |57| 
     297                    ;* --------------------------------------------------------------------------*
     298                            .dwpsn  file "../Tasks/Task_PID.c",line 59,column 4,is_stmt,isa 1
     299 0000004e E052              B         ||$C$L4||             ; [DPU_3_PIPE] |59|  ; [ORIG 16-BIT INS]
     300                            ; BRANCH OCCURS {||$C$L4||}      ; [] |59| 
     301                    ;* --------------------------------------------------------------------------*
     302 00000050           ||$C$L2||:    
     303                    
     304                    $C$DW$36        .dwtag  DW_TAG_lexical_block, DW_AT_low_pc(0x00), DW_AT_high_pc(0x00)
     305                    $C$DW$37        .dwtag  DW_TAG_variable, DW_AT_name("actual")
     306                            .dwattr $C$DW$37, DW_AT_TI_symbol_name("actual")
     307                            .dwattr $C$DW$37, DW_AT_type(*$C$DW$T$16)
     308                            .dwattr $C$DW$37, DW_AT_location[DW_OP_breg13 60]
     309                    $C$DW$38        .dwtag  DW_TAG_variable, DW_AT_name("diff")
     310                            .dwattr $C$DW$38, DW_AT_TI_symbol_name("diff")
     311                            .dwattr $C$DW$38, DW_AT_type(*$C$DW$T$16)
     312                            .dwattr $C$DW$38, DW_AT_location[DW_OP_breg13 64]
     313                    $C$DW$39        .dwtag  DW_TAG_variable, DW_AT_name("deltadiff")
     314                            .dwattr $C$DW$39, DW_AT_TI_symbol_name("deltadiff")
     315                            .dwattr $C$DW$39, DW_AT_type(*$C$DW$T$16)
     316                            .dwattr $C$DW$39, DW_AT_location[DW_OP_breg13 68]
     317                    $C$DW$40        .dwtag  DW_TAG_variable, DW_AT_name("output")
     318                            .dwattr $C$DW$40, DW_AT_TI_symbol_name("output")
     319                            .dwattr $C$DW$40, DW_AT_type(*$C$DW$T$16)
     320                            .dwattr $C$DW$40, DW_AT_location[DW_OP_breg13 72]
     321                    $C$DW$41        .dwtag  DW_TAG_variable, DW_AT_name("data1")
     322                            .dwattr $C$DW$41, DW_AT_TI_symbol_name("data1")
     323                            .dwattr $C$DW$41, DW_AT_type(*$C$DW$T$138)
     324                            .dwattr $C$DW$41, DW_AT_location[DW_OP_breg13 76]
     325                            .dwpsn  file "../Tasks/Task_PID.c",line 62,column 18,is_stmt,isa 1
     326 00000050 980E              LDR       A1, [SP, #56]         ; [DPU_3_PIPE] |62|  ; [ORIG 16-BIT INS]
     327 00000052 900F              STR       A1, [SP, #60]         ; [DPU_3_PIPE] |62|  ; [ORIG 16-BIT INS]
     328                            .dwpsn  file "../Tasks/Task_PID.c",line 63,column 15,is_stmt,isa 1
     329 00000054 0A01ED9D          VLDR.32   S0, [SP, #4]          ; [DPU_LIN_PIPE] |63|  ; [KEEP 32-BIT INS]
     330 00000058 0A0FEDDD          VLDR.32   S1, [SP, #60]         ; [DPU_LIN_PIPE] |63|  ; [KEEP 32-BIT INS]
TI ARM Assembler PC v5.2.5 Mon Mar 28 00:41:02 2016

Tools Copyright (c) 1996-2015 Texas Instruments Incorporated
Task_PID.asm                                                         PAGE    7

     331 0000005c 0AC0EE30          VSUB.F32  S0, S1, S0            ; [DPU_LIN_PIPE] |63|  ; [KEEP 32-BIT INS]
     332 00000060 0A10ED8D          VSTR.32   S0, [SP, #64]         ; [DPU_LIN_PIPE] |63|  ; [KEEP 32-BIT INS]
     333                            .dwpsn  file "../Tasks/Task_PID.c",line 66,column 5,is_stmt,isa 1
     334 00000064 0A02ED9D          VLDR.32   S0, [SP, #8]          ; [DPU_LIN_PIPE] |66|  ; [KEEP 32-BIT INS]
     335 00000068 0A10EDDD          VLDR.32   S1, [SP, #64]         ; [DPU_LIN_PIPE] |66|  ; [KEEP 32-BIT INS]
     336 0000006c 0A80EE30          VADD.F32  S0, S1, S0            ; [DPU_LIN_PIPE] |66|  ; [KEEP 32-BIT INS]
     337 00000070 0A02ED8D          VSTR.32   S0, [SP, #8]          ; [DPU_LIN_PIPE] |66|  ; [KEEP 32-BIT INS]
     338                            .dwpsn  file "../Tasks/Task_PID.c",line 74,column 20,is_stmt,isa 1
     339 00000074 0A03ED9D          VLDR.32   S0, [SP, #12]         ; [DPU_LIN_PIPE] |74|  ; [KEEP 32-BIT INS]
     340 00000078 0A10EDDD          VLDR.32   S1, [SP, #64]         ; [DPU_LIN_PIPE] |74|  ; [KEEP 32-BIT INS]
     341 0000007c 0AC0EE30          VSUB.F32  S0, S1, S0            ; [DPU_LIN_PIPE] |74|  ; [KEEP 32-BIT INS]
     342 00000080 0A11ED8D          VSTR.32   S0, [SP, #68]         ; [DPU_LIN_PIPE] |74|  ; [KEEP 32-BIT INS]
     343                            .dwpsn  file "../Tasks/Task_PID.c",line 75,column 5,is_stmt,isa 1
     344 00000084 9810              LDR       A1, [SP, #64]         ; [DPU_3_PIPE] |75|  ; [ORIG 16-BIT INS]
     345 00000086 9003              STR       A1, [SP, #12]         ; [DPU_3_PIPE] |75|  ; [ORIG 16-BIT INS]
     346                            .dwpsn  file "../Tasks/Task_PID.c",line 78,column 17,is_stmt,isa 1
     347 00000088 1A04ED9D          VLDR.32   S2, [SP, #16]         ; [DPU_LIN_PIPE] |78|  ; [KEEP 32-BIT INS]
     348 0000008c 0A06ED9D          VLDR.32   S0, [SP, #24]         ; [DPU_LIN_PIPE] |78|  ; [KEEP 32-BIT INS]
     349 00000090 1A10EDDD          VLDR.32   S3, [SP, #64]         ; [DPU_LIN_PIPE] |78|  ; [KEEP 32-BIT INS]
     350 00000094 0A02EDDD          VLDR.32   S1, [SP, #8]          ; [DPU_LIN_PIPE] |78|  ; [KEEP 32-BIT INS]
     351 00000098 0A80EE20          VMUL.F32  S0, S1, S0            ; [DPU_LIN_PIPE] |78|  ; [KEEP 32-BIT INS]
     352 0000009c 0A81EE01          VMLA.F32  S0, S3, S2            ; [DPU_LIN_PIPE] |78|  ; [KEEP 32-BIT INS]
     353 000000a0 0A05EDDD          VLDR.32   S1, [SP, #20]         ; [DPU_LIN_PIPE] |78|  ; [KEEP 32-BIT INS]
     354 000000a4 1A11ED9D          VLDR.32   S2, [SP, #68]         ; [DPU_LIN_PIPE] |78|  ; [KEEP 32-BIT INS]
     355 000000a8 0A20EE01          VMLA.F32  S0, S2, S1            ; [DPU_LIN_PIPE] |78|  ; [KEEP 32-BIT INS]
     356 000000ac 0A12ED8D          VSTR.32   S0, [SP, #72]         ; [DPU_LIN_PIPE] |78|  ; [KEEP 32-BIT INS]
     357                            .dwpsn  file "../Tasks/Task_PID.c",line 81,column 16,is_stmt,isa 1
     358 000000b0 4921              LDR       A2, $C$CON4           ; [DPU_3_PIPE] |81|  ; [ORIG 16-BIT INS]
     359 000000b2 C93C              LDMIA     A2!, {V2, V1, A4, A3} ; [DPU_3_PIPE] |81|  ; [ORIG 16-BIT INS]
     360 000000b4 A813              ADD       A1, SP, #76           ; [DPU_3_PIPE] |81|  ; [ORIG 16-BIT INS]
     361 000000b6 C03C              STMIA     A1!, {V2, V1, A4, A3} ; [DPU_3_PIPE] |81|  ; [ORIG 16-BIT INS]
     362 000000b8 C91E              LDMIA     A2, {V1, A4, A3, A2}  ; [DPU_3_PIPE] |81|  ; [ORIG 16-BIT INS]
     363 000000ba 001EE880          STMIA     A1, {V1, A4, A3, A2}  ; [DPU_3_PIPE] |81|  ; [KEEP 32-BIT INS]
     364 000000be 481C              LDR       A1, $C$CON2           ; [DPU_3_PIPE] |81|  ; [ORIG 16-BIT INS]
     365 000000c0 6800              LDR       A1, [A1, #0]          ; [DPU_3_PIPE] |81|  ; [ORIG 16-BIT INS]
     366 000000c2 9019              STR       A1, [SP, #100]        ; [DPU_3_PIPE] |81|  ; [ORIG 16-BIT INS]
     367 000000c4 9812              LDR       A1, [SP, #72]         ; [DPU_3_PIPE] |81|  ; [ORIG 16-BIT INS]
     368 000000c6 901A              STR       A1, [SP, #104]        ; [DPU_3_PIPE] |81|  ; [ORIG 16-BIT INS]
     369                            .dwpsn  file "../Tasks/Task_PID.c",line 82,column 5,is_stmt,isa 1
     370 000000c8 481C              LDR       A1, $C$CON5           ; [DPU_3_PIPE] |82|  ; [ORIG 16-BIT INS]
     371 000000ca 6800              LDR       A1, [A1, #0]          ; [DPU_3_PIPE] |82|  ; [ORIG 16-BIT INS]
     372 000000cc 2100              MOVS      A2, #0                ; [DPU_3_PIPE] |82|  ; [ORIG 16-BIT INS]
     373 000000ce 2264              MOVS      A3, #100              ; [DPU_3_PIPE] |82|  ; [ORIG 16-BIT INS]
     374 000000d0 2300              MOVS      A4, #0                ; [DPU_3_PIPE] |82|  ; [ORIG 16-BIT INS]
     375                    $C$DW$42        .dwtag  DW_TAG_TI_branch
     376                            .dwattr $C$DW$42, DW_AT_low_pc(0x00)
     377                            .dwattr $C$DW$42, DW_AT_name("xQueueGenericReceive")
     378                            .dwattr $C$DW$42, DW_AT_TI_call
     379 000000d2 FFFEF7FF!         BL        xQueueGenericReceive  ; [DPU_3_PIPE] |82|  ; [KEEP 32-BIT INS]
     380                            ; CALL OCCURS {xQueueGenericReceive }  ; [] |82| 
     381 000000d6 2801              CMP       A1, #1                ; [DPU_3_PIPE] |82|  ; [ORIG 16-BIT INS]
     382 000000d8 D10D              BNE       ||$C$L3||             ; [DPU_3_PIPE] |82|  ; [ORIG 16-BIT INS]
     383                            ; BRANCHCC OCCURS {||$C$L3||}    ; [] |82| 
     384                    ;* --------------------------------------------------------------------------*
     385                            .dwpsn  file "../Tasks/Task_PID.c",line 84,column 6,is_stmt,isa 1
TI ARM Assembler PC v5.2.5 Mon Mar 28 00:41:02 2016

Tools Copyright (c) 1996-2015 Texas Instruments Incorporated
Task_PID.asm                                                         PAGE    8

     386 000000da 4819              LDR       A1, $C$CON6           ; [DPU_3_PIPE] |84|  ; [ORIG 16-BIT INS]
     387 000000dc 6800              LDR       A1, [A1, #0]          ; [DPU_3_PIPE] |84|  ; [ORIG 16-BIT INS]
     388 000000de A913              ADD       A2, SP, #76           ; [DPU_3_PIPE] |84|  ; [ORIG 16-BIT INS]
     389 000000e0 2200              MOVS      A3, #0                ; [DPU_3_PIPE] |84|  ; [ORIG 16-BIT INS]
     390 000000e2 2300              MOVS      A4, #0                ; [DPU_3_PIPE] |84|  ; [ORIG 16-BIT INS]
     391                    $C$DW$43        .dwtag  DW_TAG_TI_branch
     392                            .dwattr $C$DW$43, DW_AT_low_pc(0x00)
     393                            .dwattr $C$DW$43, DW_AT_name("xQueueGenericSend")
     394                            .dwattr $C$DW$43, DW_AT_TI_call
     395 000000e4 FFFEF7FF!         BL        xQueueGenericSend     ; [DPU_3_PIPE] |84|  ; [KEEP 32-BIT INS]
     396                            ; CALL OCCURS {xQueueGenericSend }  ; [] |84| 
     397                            .dwpsn  file "../Tasks/Task_PID.c",line 85,column 6,is_stmt,isa 1
     398 000000e8 4814              LDR       A1, $C$CON5           ; [DPU_3_PIPE] |85|  ; [ORIG 16-BIT INS]
     399 000000ea 6800              LDR       A1, [A1, #0]          ; [DPU_3_PIPE] |85|  ; [ORIG 16-BIT INS]
     400 000000ec 2100              MOVS      A2, #0                ; [DPU_3_PIPE] |85|  ; [ORIG 16-BIT INS]
     401 000000ee 2200              MOVS      A3, #0                ; [DPU_3_PIPE] |85|  ; [ORIG 16-BIT INS]
     402 000000f0 2300              MOVS      A4, #0                ; [DPU_3_PIPE] |85|  ; [ORIG 16-BIT INS]
     403                    $C$DW$44        .dwtag  DW_TAG_TI_branch
     404                            .dwattr $C$DW$44, DW_AT_low_pc(0x00)
     405                            .dwattr $C$DW$44, DW_AT_name("xQueueGenericSend")
     406                            .dwattr $C$DW$44, DW_AT_TI_call
     407 000000f2 FFFEF7FF!         BL        xQueueGenericSend     ; [DPU_3_PIPE] |85|  ; [KEEP 32-BIT INS]
     408                            ; CALL OCCURS {xQueueGenericSend }  ; [] |85| 
     409                    ;* --------------------------------------------------------------------------*
     410                    ||$C$L3||:    
     411                            .dwendtag $C$DW$36
     412                    
     413                    ;* --------------------------------------------------------------------------*
     414                    ;*   BEGIN LOOP ||$C$L4||
     415                    ;* --------------------------------------------------------------------------*
     416 000000f6           ||$C$L4||:    
     417                            .dwpsn  file "../Tasks/Task_PID.c",line 59,column 4,is_stmt,isa 1
     418 000000f6 480D              LDR       A1, $C$CON1           ; [DPU_3_PIPE] |59|  ; [ORIG 16-BIT INS]
     419 000000f8 6800              LDR       A1, [A1, #0]          ; [DPU_3_PIPE] |59|  ; [ORIG 16-BIT INS]
     420 000000fa A907              ADD       A2, SP, #28           ; [DPU_3_PIPE] |59|  ; [ORIG 16-BIT INS]
     421 000000fc 2200              MOVS      A3, #0                ; [DPU_3_PIPE] |59|  ; [ORIG 16-BIT INS]
     422 000000fe 2300              MOVS      A4, #0                ; [DPU_3_PIPE] |59|  ; [ORIG 16-BIT INS]
     423                    $C$DW$45        .dwtag  DW_TAG_TI_branch
     424                            .dwattr $C$DW$45, DW_AT_low_pc(0x00)
     425                            .dwattr $C$DW$45, DW_AT_name("xQueueGenericReceive")
     426                            .dwattr $C$DW$45, DW_AT_TI_call
     427 00000100 FFFEF7FF!         BL        xQueueGenericReceive  ; [DPU_3_PIPE] |59|  ; [KEEP 32-BIT INS]
     428                            ; CALL OCCURS {xQueueGenericReceive }  ; [] |59| 
     429 00000104 2800              CMP       A1, #0                ; [DPU_3_PIPE] |59|  ; [ORIG 16-BIT INS]
     430 00000106 D1A3              BNE       ||$C$L2||             ; [DPU_3_PIPE] |59|  ; [ORIG 16-BIT INS]
     431                            ; BRANCHCC OCCURS {||$C$L2||}    ; [] |59| 
     432                    ;* --------------------------------------------------------------------------*
     433                            .dwpsn  file "../Tasks/Task_PID.c",line 90,column 4,is_stmt,isa 1
     434 00000108 480A              LDR       A1, $C$CON3           ; [DPU_3_PIPE] |90|  ; [ORIG 16-BIT INS]
     435 0000010a 6800              LDR       A1, [A1, #0]          ; [DPU_3_PIPE] |90|  ; [ORIG 16-BIT INS]
     436 0000010c 2100              MOVS      A2, #0                ; [DPU_3_PIPE] |90|  ; [ORIG 16-BIT INS]
     437 0000010e 2200              MOVS      A3, #0                ; [DPU_3_PIPE] |90|  ; [ORIG 16-BIT INS]
     438 00000110 2300              MOVS      A4, #0                ; [DPU_3_PIPE] |90|  ; [ORIG 16-BIT INS]
     439                    $C$DW$46        .dwtag  DW_TAG_TI_branch
     440                            .dwattr $C$DW$46, DW_AT_low_pc(0x00)
TI ARM Assembler PC v5.2.5 Mon Mar 28 00:41:02 2016

Tools Copyright (c) 1996-2015 Texas Instruments Incorporated
Task_PID.asm                                                         PAGE    9

     441                            .dwattr $C$DW$46, DW_AT_name("xQueueGenericSend")
     442                            .dwattr $C$DW$46, DW_AT_TI_call
     443 00000112 FFFEF7FF!         BL        xQueueGenericSend     ; [DPU_3_PIPE] |90|  ; [KEEP 32-BIT INS]
     444                            ; CALL OCCURS {xQueueGenericSend }  ; [] |90| 
     445                    ;* --------------------------------------------------------------------------*
     446 00000116           ||$C$L5||:    
     447                            .dwpsn  file "../Tasks/Task_PID.c",line 92,column 3,is_stmt,isa 1
     448 00000116 707AF44F          MOV       A1, #1000             ; [DPU_3_PIPE] |92|  ; [KEEP 32-BIT INS]
     449                    $C$DW$47        .dwtag  DW_TAG_TI_branch
     450                            .dwattr $C$DW$47, DW_AT_low_pc(0x00)
     451                            .dwattr $C$DW$47, DW_AT_name("vTaskDelay")
     452                            .dwattr $C$DW$47, DW_AT_TI_call
     453 0000011a FFFEF7FF!         BL        vTaskDelay            ; [DPU_3_PIPE] |92|  ; [KEEP 32-BIT INS]
     454                            ; CALL OCCURS {vTaskDelay }      ; [] |92| 
     455                            .dwpsn  file "../Tasks/Task_PID.c",line 55,column 8,is_stmt,isa 1
     456 0000011e E78D              B         ||$C$L1||             ; [DPU_3_PIPE] |55|  ; [ORIG 16-BIT INS]
     457                            ; BRANCH OCCURS {||$C$L1||}      ; [] |55| 
     458                    ;* --------------------------------------------------------------------------*
     459                            .dwattr $C$DW$23, DW_AT_TI_end_file("../Tasks/Task_PID.c")
     460                            .dwattr $C$DW$23, DW_AT_TI_end_line(0x5e)
     461                            .dwattr $C$DW$23, DW_AT_TI_end_column(0x01)
     462                            .dwendentry
     463                            .dwendtag $C$DW$23
     464                    
     465                    ;******************************************************************************
     466                    ;* FLOATING-POINT CONSTANTS                                                   *
     467                    ;******************************************************************************
     468 00000120                   .sect   ".text"
     469                            .align  4
     470 00000120 42960000  ||$C$FL1||:     .word   042960000h      ; 75
     471                            .align  4
     472 00000124 00000000  ||$C$FL2||:     .word   000000000h      ; 0
     473                            .align  4
     474 00000128 3E4CCCCD  ||$C$FL3||:     .word   03e4ccccdh      ; 0.20000000298023223877
     475                    ;******************************************************************************
     476                    ;* CONSTANT TABLE                                                             *
     477                    ;******************************************************************************
     478 0000012c                   .sect   ".text"
     479                            .align  4
     480 0000012c 00000000! ||$C$CON1||:    .bits   PIDQueue,32
     481                            .align  4
     482 00000130 00000000! ||$C$CON2||:    .bits   xPortSysTickCount,32
     483                            .align  4
     484 00000134 00000000! ||$C$CON3||:    .bits   xSemaphoreTempData,32
     485                            .align  4
     486 00000138 00000000! ||$C$CON4||:    .bits   ||$P$T0$1||,32
     487                            .align  4
     488 0000013c 00000000! ||$C$CON5||:    .bits   xSemaphoreData,32
     489                            .align  4
     490 00000140 00000000! ||$C$CON6||:    .bits   dataQueue,32
     491                    ;*****************************************************************************
     492                    ;* UNDEFINED EXTERNAL REFERENCES                                             *
     493                    ;*****************************************************************************
     494                            .global vTaskDelay
     495                            .global xQueueGenericSend
TI ARM Assembler PC v5.2.5 Mon Mar 28 00:41:02 2016

Tools Copyright (c) 1996-2015 Texas Instruments Incorporated
Task_PID.asm                                                         PAGE   10

     496                            .global xQueueGenericReceive
     497                            .global xQueueGenericCreate
     498                            .global xPortSysTickCount
     499                            .global dataQueue
     500                            .global xSemaphoreTempData
     501                            .global xSemaphoreData
     502                    
     503                    ;******************************************************************************
     504                    ;* BUILD ATTRIBUTES                                                           *
     505                    ;******************************************************************************
     506                            .battr "aeabi", Tag_File, 1, Tag_ABI_PCS_wchar_t(2)
     507                            .battr "aeabi", Tag_File, 1, Tag_ABI_FP_rounding(0)
     508                            .battr "aeabi", Tag_File, 1, Tag_ABI_FP_denormal(0)
     509                            .battr "aeabi", Tag_File, 1, Tag_ABI_FP_exceptions(0)
     510                            .battr "aeabi", Tag_File, 1, Tag_ABI_FP_number_model(1)
     511                            .battr "aeabi", Tag_File, 1, Tag_ABI_enum_size(1)
     512                            .battr "aeabi", Tag_File, 1, Tag_ABI_optimization_goals(5)
     513                            .battr "aeabi", Tag_File, 1, Tag_ABI_FP_optimization_goals(0)
     514                            .battr "TI", Tag_File, 1, Tag_Bitfield_layout(2)
     515                            .battr "TI", Tag_File, 1, Tag_FP_interface(1)
     516                    
     517                    ;******************************************************************************
     518                    ;* TYPE INFORMATION                                                           *
     519                    ;******************************************************************************
     520                    
     521                    $C$DW$T$53      .dwtag  DW_TAG_enumeration_type
     522                            .dwattr $C$DW$T$53, DW_AT_byte_size(0x01)
     523                    $C$DW$48        .dwtag  DW_TAG_enumerator, DW_AT_name("eRunning"), DW_AT_const_value(0x00)
     524                            .dwattr $C$DW$48, DW_AT_decl_file("C:/Users/DreyCow/workspace/TI_ARM_Tiva_Projects_EECS_690_Sp
     525                            .dwattr $C$DW$48, DW_AT_decl_line(0x72)
     526                            .dwattr $C$DW$48, DW_AT_decl_column(0x02)
     527                    $C$DW$49        .dwtag  DW_TAG_enumerator, DW_AT_name("eReady"), DW_AT_const_value(0x01)
     528                            .dwattr $C$DW$49, DW_AT_decl_file("C:/Users/DreyCow/workspace/TI_ARM_Tiva_Projects_EECS_690_Sp
     529                            .dwattr $C$DW$49, DW_AT_decl_line(0x73)
     530                            .dwattr $C$DW$49, DW_AT_decl_column(0x02)
     531                    $C$DW$50        .dwtag  DW_TAG_enumerator, DW_AT_name("eBlocked"), DW_AT_const_value(0x02)
     532                            .dwattr $C$DW$50, DW_AT_decl_file("C:/Users/DreyCow/workspace/TI_ARM_Tiva_Projects_EECS_690_Sp
     533                            .dwattr $C$DW$50, DW_AT_decl_line(0x74)
     534                            .dwattr $C$DW$50, DW_AT_decl_column(0x02)
     535                    $C$DW$51        .dwtag  DW_TAG_enumerator, DW_AT_name("eSuspended"), DW_AT_const_value(0x03)
     536                            .dwattr $C$DW$51, DW_AT_decl_file("C:/Users/DreyCow/workspace/TI_ARM_Tiva_Projects_EECS_690_Sp
     537                            .dwattr $C$DW$51, DW_AT_decl_line(0x75)
     538                            .dwattr $C$DW$51, DW_AT_decl_column(0x02)
     539                    $C$DW$52        .dwtag  DW_TAG_enumerator, DW_AT_name("eDeleted"), DW_AT_const_value(0x04)
     540                            .dwattr $C$DW$52, DW_AT_decl_file("C:/Users/DreyCow/workspace/TI_ARM_Tiva_Projects_EECS_690_Sp
     541                            .dwattr $C$DW$52, DW_AT_decl_line(0x76)
     542                            .dwattr $C$DW$52, DW_AT_decl_column(0x02)
     543                            .dwendtag $C$DW$T$53
     544                    
     545                            .dwattr $C$DW$T$53, DW_AT_decl_file("C:/Users/DreyCow/workspace/TI_ARM_Tiva_Projects_EECS_690_
     546                            .dwattr $C$DW$T$53, DW_AT_decl_line(0x71)
     547                            .dwattr $C$DW$T$53, DW_AT_decl_column(0x01)
     548                    $C$DW$T$54      .dwtag  DW_TAG_typedef, DW_AT_name("eTaskState")
     549                            .dwattr $C$DW$T$54, DW_AT_type(*$C$DW$T$53)
     550                            .dwattr $C$DW$T$54, DW_AT_language(DW_LANG_C)
TI ARM Assembler PC v5.2.5 Mon Mar 28 00:41:02 2016

Tools Copyright (c) 1996-2015 Texas Instruments Incorporated
Task_PID.asm                                                         PAGE   11

     551                            .dwattr $C$DW$T$54, DW_AT_decl_file("C:/Users/DreyCow/workspace/TI_ARM_Tiva_Projects_EECS_690_
     552                            .dwattr $C$DW$T$54, DW_AT_decl_line(0x77)
     553                            .dwattr $C$DW$T$54, DW_AT_decl_column(0x03)
     554                    
     555                    $C$DW$T$59      .dwtag  DW_TAG_enumeration_type
     556                            .dwattr $C$DW$T$59, DW_AT_byte_size(0x01)
     557                    $C$DW$53        .dwtag  DW_TAG_enumerator, DW_AT_name("eNoAction"), DW_AT_const_value(0x00)
     558                            .dwattr $C$DW$53, DW_AT_decl_file("C:/Users/DreyCow/workspace/TI_ARM_Tiva_Projects_EECS_690_Sp
     559                            .dwattr $C$DW$53, DW_AT_decl_line(0x7c)
     560                            .dwattr $C$DW$53, DW_AT_decl_column(0x02)
     561                    $C$DW$54        .dwtag  DW_TAG_enumerator, DW_AT_name("eSetBits"), DW_AT_const_value(0x01)
     562                            .dwattr $C$DW$54, DW_AT_decl_file("C:/Users/DreyCow/workspace/TI_ARM_Tiva_Projects_EECS_690_Sp
     563                            .dwattr $C$DW$54, DW_AT_decl_line(0x7d)
     564                            .dwattr $C$DW$54, DW_AT_decl_column(0x02)
     565                    $C$DW$55        .dwtag  DW_TAG_enumerator, DW_AT_name("eIncrement"), DW_AT_const_value(0x02)
     566                            .dwattr $C$DW$55, DW_AT_decl_file("C:/Users/DreyCow/workspace/TI_ARM_Tiva_Projects_EECS_690_Sp
     567                            .dwattr $C$DW$55, DW_AT_decl_line(0x7e)
     568                            .dwattr $C$DW$55, DW_AT_decl_column(0x02)
     569                    $C$DW$56        .dwtag  DW_TAG_enumerator, DW_AT_name("eSetValueWithOverwrite"), DW_AT_const_value(0x0
     570                            .dwattr $C$DW$56, DW_AT_decl_file("C:/Users/DreyCow/workspace/TI_ARM_Tiva_Projects_EECS_690_Sp
     571                            .dwattr $C$DW$56, DW_AT_decl_line(0x7f)
     572                            .dwattr $C$DW$56, DW_AT_decl_column(0x02)
     573                    $C$DW$57        .dwtag  DW_TAG_enumerator, DW_AT_name("eSetValueWithoutOverwrite"), DW_AT_const_value(
     574                            .dwattr $C$DW$57, DW_AT_decl_file("C:/Users/DreyCow/workspace/TI_ARM_Tiva_Projects_EECS_690_Sp
     575                            .dwattr $C$DW$57, DW_AT_decl_line(0x80)
     576                            .dwattr $C$DW$57, DW_AT_decl_column(0x02)
     577                            .dwendtag $C$DW$T$59
     578                    
     579                            .dwattr $C$DW$T$59, DW_AT_decl_file("C:/Users/DreyCow/workspace/TI_ARM_Tiva_Projects_EECS_690_
     580                            .dwattr $C$DW$T$59, DW_AT_decl_line(0x7b)
     581                            .dwattr $C$DW$T$59, DW_AT_decl_column(0x01)
     582                    $C$DW$T$60      .dwtag  DW_TAG_typedef, DW_AT_name("eNotifyAction")
     583                            .dwattr $C$DW$T$60, DW_AT_type(*$C$DW$T$59)
     584                            .dwattr $C$DW$T$60, DW_AT_language(DW_LANG_C)
     585                            .dwattr $C$DW$T$60, DW_AT_decl_file("C:/Users/DreyCow/workspace/TI_ARM_Tiva_Projects_EECS_690_
     586                            .dwattr $C$DW$T$60, DW_AT_decl_line(0x81)
     587                            .dwattr $C$DW$T$60, DW_AT_decl_column(0x03)
     588                    
     589                    $C$DW$T$61      .dwtag  DW_TAG_enumeration_type
     590                            .dwattr $C$DW$T$61, DW_AT_byte_size(0x01)
     591                    $C$DW$58        .dwtag  DW_TAG_enumerator, DW_AT_name("eAbortSleep"), DW_AT_const_value(0x00)
     592                            .dwattr $C$DW$58, DW_AT_decl_file("C:/Users/DreyCow/workspace/TI_ARM_Tiva_Projects_EECS_690_Sp
     593                            .dwattr $C$DW$58, DW_AT_decl_line(0xb5)
     594                            .dwattr $C$DW$58, DW_AT_decl_column(0x02)
     595                    $C$DW$59        .dwtag  DW_TAG_enumerator, DW_AT_name("eStandardSleep"), DW_AT_const_value(0x01)
     596                            .dwattr $C$DW$59, DW_AT_decl_file("C:/Users/DreyCow/workspace/TI_ARM_Tiva_Projects_EECS_690_Sp
     597                            .dwattr $C$DW$59, DW_AT_decl_line(0xb6)
     598                            .dwattr $C$DW$59, DW_AT_decl_column(0x02)
     599                    $C$DW$60        .dwtag  DW_TAG_enumerator, DW_AT_name("eNoTasksWaitingTimeout"), DW_AT_const_value(0x0
     600                            .dwattr $C$DW$60, DW_AT_decl_file("C:/Users/DreyCow/workspace/TI_ARM_Tiva_Projects_EECS_690_Sp
     601                            .dwattr $C$DW$60, DW_AT_decl_line(0xb7)
     602                            .dwattr $C$DW$60, DW_AT_decl_column(0x02)
     603                            .dwendtag $C$DW$T$61
     604                    
     605                            .dwattr $C$DW$T$61, DW_AT_decl_file("C:/Users/DreyCow/workspace/TI_ARM_Tiva_Projects_EECS_690_
TI ARM Assembler PC v5.2.5 Mon Mar 28 00:41:02 2016

Tools Copyright (c) 1996-2015 Texas Instruments Incorporated
Task_PID.asm                                                         PAGE   12

     606                            .dwattr $C$DW$T$61, DW_AT_decl_line(0xb4)
     607                            .dwattr $C$DW$T$61, DW_AT_decl_column(0x01)
     608                    $C$DW$T$62      .dwtag  DW_TAG_typedef, DW_AT_name("eSleepModeStatus")
     609                            .dwattr $C$DW$T$62, DW_AT_type(*$C$DW$T$61)
     610                            .dwattr $C$DW$T$62, DW_AT_language(DW_LANG_C)
     611                            .dwattr $C$DW$T$62, DW_AT_decl_file("C:/Users/DreyCow/workspace/TI_ARM_Tiva_Projects_EECS_690_
     612                            .dwattr $C$DW$T$62, DW_AT_decl_line(0xb8)
     613                            .dwattr $C$DW$T$62, DW_AT_decl_column(0x03)
     614                    
     615                    $C$DW$T$20      .dwtag  DW_TAG_structure_type
     616                            .dwattr $C$DW$T$20, DW_AT_byte_size(0x18)
     617                    $C$DW$61        .dwtag  DW_TAG_member
     618                            .dwattr $C$DW$61, DW_AT_type(*$C$DW$T$10)
     619                            .dwattr $C$DW$61, DW_AT_name("fd")
     620                            .dwattr $C$DW$61, DW_AT_TI_symbol_name("fd")
     621                            .dwattr $C$DW$61, DW_AT_data_member_location[DW_OP_plus_uconst 0x0]
     622                            .dwattr $C$DW$61, DW_AT_accessibility(DW_ACCESS_public)
     623                            .dwattr $C$DW$61, DW_AT_decl_file("C:/ti/ccsv6/tools/compiler/ti-cgt-arm_5.2.5/include/stdio.h
     624                            .dwattr $C$DW$61, DW_AT_decl_line(0x5c)
     625                            .dwattr $C$DW$61, DW_AT_decl_column(0x0b)
     626                    $C$DW$62        .dwtag  DW_TAG_member
     627                            .dwattr $C$DW$62, DW_AT_type(*$C$DW$T$19)
     628                            .dwattr $C$DW$62, DW_AT_name("buf")
     629                            .dwattr $C$DW$62, DW_AT_TI_symbol_name("buf")
     630                            .dwattr $C$DW$62, DW_AT_data_member_location[DW_OP_plus_uconst 0x4]
     631                            .dwattr $C$DW$62, DW_AT_accessibility(DW_ACCESS_public)
     632                            .dwattr $C$DW$62, DW_AT_decl_file("C:/ti/ccsv6/tools/compiler/ti-cgt-arm_5.2.5/include/stdio.h
     633                            .dwattr $C$DW$62, DW_AT_decl_line(0x5d)
     634                            .dwattr $C$DW$62, DW_AT_decl_column(0x16)
     635                    $C$DW$63        .dwtag  DW_TAG_member
     636                            .dwattr $C$DW$63, DW_AT_type(*$C$DW$T$19)
     637                            .dwattr $C$DW$63, DW_AT_name("pos")
     638                            .dwattr $C$DW$63, DW_AT_TI_symbol_name("pos")
     639                            .dwattr $C$DW$63, DW_AT_data_member_location[DW_OP_plus_uconst 0x8]
     640                            .dwattr $C$DW$63, DW_AT_accessibility(DW_ACCESS_public)
     641                            .dwattr $C$DW$63, DW_AT_decl_file("C:/ti/ccsv6/tools/compiler/ti-cgt-arm_5.2.5/include/stdio.h
     642                            .dwattr $C$DW$63, DW_AT_decl_line(0x5e)
     643                            .dwattr $C$DW$63, DW_AT_decl_column(0x16)
     644                    $C$DW$64        .dwtag  DW_TAG_member
     645                            .dwattr $C$DW$64, DW_AT_type(*$C$DW$T$19)
     646                            .dwattr $C$DW$64, DW_AT_name("bufend")
     647                            .dwattr $C$DW$64, DW_AT_TI_symbol_name("bufend")
     648                            .dwattr $C$DW$64, DW_AT_data_member_location[DW_OP_plus_uconst 0xc]
     649                            .dwattr $C$DW$64, DW_AT_accessibility(DW_ACCESS_public)
     650                            .dwattr $C$DW$64, DW_AT_decl_file("C:/ti/ccsv6/tools/compiler/ti-cgt-arm_5.2.5/include/stdio.h
     651                            .dwattr $C$DW$64, DW_AT_decl_line(0x5f)
     652                            .dwattr $C$DW$64, DW_AT_decl_column(0x16)
     653                    $C$DW$65        .dwtag  DW_TAG_member
     654                            .dwattr $C$DW$65, DW_AT_type(*$C$DW$T$19)
     655                            .dwattr $C$DW$65, DW_AT_name("buff_stop")
     656                            .dwattr $C$DW$65, DW_AT_TI_symbol_name("buff_stop")
     657                            .dwattr $C$DW$65, DW_AT_data_member_location[DW_OP_plus_uconst 0x10]
     658                            .dwattr $C$DW$65, DW_AT_accessibility(DW_ACCESS_public)
     659                            .dwattr $C$DW$65, DW_AT_decl_file("C:/ti/ccsv6/tools/compiler/ti-cgt-arm_5.2.5/include/stdio.h
     660                            .dwattr $C$DW$65, DW_AT_decl_line(0x60)
TI ARM Assembler PC v5.2.5 Mon Mar 28 00:41:02 2016

Tools Copyright (c) 1996-2015 Texas Instruments Incorporated
Task_PID.asm                                                         PAGE   13

     661                            .dwattr $C$DW$65, DW_AT_decl_column(0x16)
     662                    $C$DW$66        .dwtag  DW_TAG_member
     663                            .dwattr $C$DW$66, DW_AT_type(*$C$DW$T$11)
     664                            .dwattr $C$DW$66, DW_AT_name("flags")
     665                            .dwattr $C$DW$66, DW_AT_TI_symbol_name("flags")
     666                            .dwattr $C$DW$66, DW_AT_data_member_location[DW_OP_plus_uconst 0x14]
     667                            .dwattr $C$DW$66, DW_AT_accessibility(DW_ACCESS_public)
     668                            .dwattr $C$DW$66, DW_AT_decl_file("C:/ti/ccsv6/tools/compiler/ti-cgt-arm_5.2.5/include/stdio.h
     669                            .dwattr $C$DW$66, DW_AT_decl_line(0x61)
     670                            .dwattr $C$DW$66, DW_AT_decl_column(0x16)
     671                            .dwendtag $C$DW$T$20
     672                    
     673                            .dwattr $C$DW$T$20, DW_AT_decl_file("C:/ti/ccsv6/tools/compiler/ti-cgt-arm_5.2.5/include/stdio
     674                            .dwattr $C$DW$T$20, DW_AT_decl_line(0x5b)
     675                            .dwattr $C$DW$T$20, DW_AT_decl_column(0x10)
     676                    $C$DW$T$63      .dwtag  DW_TAG_typedef, DW_AT_name("FILE")
     677                            .dwattr $C$DW$T$63, DW_AT_type(*$C$DW$T$20)
     678                            .dwattr $C$DW$T$63, DW_AT_language(DW_LANG_C)
     679                            .dwattr $C$DW$T$63, DW_AT_decl_file("C:/ti/ccsv6/tools/compiler/ti-cgt-arm_5.2.5/include/stdio
     680                            .dwattr $C$DW$T$63, DW_AT_decl_line(0x62)
     681                            .dwattr $C$DW$T$63, DW_AT_decl_column(0x03)
     682                    
     683                    $C$DW$T$24      .dwtag  DW_TAG_structure_type
     684                            .dwattr $C$DW$T$24, DW_AT_name("HeapRegion")
     685                            .dwattr $C$DW$T$24, DW_AT_byte_size(0x08)
     686                    $C$DW$67        .dwtag  DW_TAG_member
     687                            .dwattr $C$DW$67, DW_AT_type(*$C$DW$T$22)
     688                            .dwattr $C$DW$67, DW_AT_name("pucStartAddress")
     689                            .dwattr $C$DW$67, DW_AT_TI_symbol_name("pucStartAddress")
     690                            .dwattr $C$DW$67, DW_AT_data_member_location[DW_OP_plus_uconst 0x0]
     691                            .dwattr $C$DW$67, DW_AT_accessibility(DW_ACCESS_public)
     692                            .dwattr $C$DW$67, DW_AT_decl_file("C:\Users\DreyCow\workspace\TI_ARM_Tiva_Projects_EECS_690_Sp
     693                            .dwattr $C$DW$67, DW_AT_decl_line(0x96)
     694                            .dwattr $C$DW$67, DW_AT_decl_column(0x0b)
     695                    $C$DW$68        .dwtag  DW_TAG_member
     696                            .dwattr $C$DW$68, DW_AT_type(*$C$DW$T$23)
     697                            .dwattr $C$DW$68, DW_AT_name("xSizeInBytes")
     698                            .dwattr $C$DW$68, DW_AT_TI_symbol_name("xSizeInBytes")
     699                            .dwattr $C$DW$68, DW_AT_data_member_location[DW_OP_plus_uconst 0x4]
     700                            .dwattr $C$DW$68, DW_AT_accessibility(DW_ACCESS_public)
     701                            .dwattr $C$DW$68, DW_AT_decl_file("C:\Users\DreyCow\workspace\TI_ARM_Tiva_Projects_EECS_690_Sp
     702                            .dwattr $C$DW$68, DW_AT_decl_line(0x97)
     703                            .dwattr $C$DW$68, DW_AT_decl_column(0x09)
     704                            .dwendtag $C$DW$T$24
     705                    
     706                            .dwattr $C$DW$T$24, DW_AT_decl_file("C:\Users\DreyCow\workspace\TI_ARM_Tiva_Projects_EECS_690_
     707                            .dwattr $C$DW$T$24, DW_AT_decl_line(0x94)
     708                            .dwattr $C$DW$T$24, DW_AT_decl_column(0x10)
     709                    $C$DW$T$64      .dwtag  DW_TAG_typedef, DW_AT_name("HeapRegion_t")
     710                            .dwattr $C$DW$T$64, DW_AT_type(*$C$DW$T$24)
     711                            .dwattr $C$DW$T$64, DW_AT_language(DW_LANG_C)
     712                            .dwattr $C$DW$T$64, DW_AT_decl_file("C:\Users\DreyCow\workspace\TI_ARM_Tiva_Projects_EECS_690_
     713                            .dwattr $C$DW$T$64, DW_AT_decl_line(0x98)
     714                            .dwattr $C$DW$T$64, DW_AT_decl_column(0x03)
     715                    $C$DW$T$2       .dwtag  DW_TAG_unspecified_type
TI ARM Assembler PC v5.2.5 Mon Mar 28 00:41:02 2016

Tools Copyright (c) 1996-2015 Texas Instruments Incorporated
Task_PID.asm                                                         PAGE   14

     716                            .dwattr $C$DW$T$2, DW_AT_name("void")
     717                    $C$DW$T$3       .dwtag  DW_TAG_pointer_type
     718                            .dwattr $C$DW$T$3, DW_AT_type(*$C$DW$T$2)
     719                            .dwattr $C$DW$T$3, DW_AT_address_class(0x20)
     720                    $C$DW$T$65      .dwtag  DW_TAG_typedef, DW_AT_name("QueueHandle_t")
     721                            .dwattr $C$DW$T$65, DW_AT_type(*$C$DW$T$3)
     722                            .dwattr $C$DW$T$65, DW_AT_language(DW_LANG_C)
     723                            .dwattr $C$DW$T$65, DW_AT_decl_file("C:/Users/DreyCow/workspace/TI_ARM_Tiva_Projects_EECS_690_
     724                            .dwattr $C$DW$T$65, DW_AT_decl_line(0x58)
     725                            .dwattr $C$DW$T$65, DW_AT_decl_column(0x10)
     726                    $C$DW$T$66      .dwtag  DW_TAG_volatile_type
     727                            .dwattr $C$DW$T$66, DW_AT_type(*$C$DW$T$65)
     728                    $C$DW$T$67      .dwtag  DW_TAG_typedef, DW_AT_name("SemaphoreHandle_t")
     729                            .dwattr $C$DW$T$67, DW_AT_type(*$C$DW$T$65)
     730                            .dwattr $C$DW$T$67, DW_AT_language(DW_LANG_C)
     731                            .dwattr $C$DW$T$67, DW_AT_decl_file("C:/Users/DreyCow/workspace/TI_ARM_Tiva_Projects_EECS_690_
     732                            .dwattr $C$DW$T$67, DW_AT_decl_line(0x4f)
     733                            .dwattr $C$DW$T$67, DW_AT_decl_column(0x17)
     734                    $C$DW$T$68      .dwtag  DW_TAG_volatile_type
     735                            .dwattr $C$DW$T$68, DW_AT_type(*$C$DW$T$67)
     736                    $C$DW$T$73      .dwtag  DW_TAG_typedef, DW_AT_name("QueueSetHandle_t")
     737                            .dwattr $C$DW$T$73, DW_AT_type(*$C$DW$T$3)
     738                            .dwattr $C$DW$T$73, DW_AT_language(DW_LANG_C)
     739                            .dwattr $C$DW$T$73, DW_AT_decl_file("C:/Users/DreyCow/workspace/TI_ARM_Tiva_Projects_EECS_690_
     740                            .dwattr $C$DW$T$73, DW_AT_decl_line(0x5f)
     741                            .dwattr $C$DW$T$73, DW_AT_decl_column(0x10)
     742                    $C$DW$T$74      .dwtag  DW_TAG_typedef, DW_AT_name("QueueSetMemberHandle_t")
     743                            .dwattr $C$DW$T$74, DW_AT_type(*$C$DW$T$3)
     744                            .dwattr $C$DW$T$74, DW_AT_language(DW_LANG_C)
     745                            .dwattr $C$DW$T$74, DW_AT_decl_file("C:/Users/DreyCow/workspace/TI_ARM_Tiva_Projects_EECS_690_
     746                            .dwattr $C$DW$T$74, DW_AT_decl_line(0x66)
     747                            .dwattr $C$DW$T$74, DW_AT_decl_column(0x10)
     748                    $C$DW$T$52      .dwtag  DW_TAG_typedef, DW_AT_name("TaskHandle_t")
     749                            .dwattr $C$DW$T$52, DW_AT_type(*$C$DW$T$3)
     750                            .dwattr $C$DW$T$52, DW_AT_language(DW_LANG_C)
     751                            .dwattr $C$DW$T$52, DW_AT_decl_file("C:/Users/DreyCow/workspace/TI_ARM_Tiva_Projects_EECS_690_
     752                            .dwattr $C$DW$T$52, DW_AT_decl_line(0x67)
     753                            .dwattr $C$DW$T$52, DW_AT_decl_column(0x10)
     754                    $C$DW$T$75      .dwtag  DW_TAG_const_type
     755                            .dwattr $C$DW$T$75, DW_AT_type(*$C$DW$T$3)
     756                    
     757                    $C$DW$T$40      .dwtag  DW_TAG_subroutine_type
     758                            .dwattr $C$DW$T$40, DW_AT_language(DW_LANG_C)
     759                    $C$DW$69        .dwtag  DW_TAG_formal_parameter
     760                            .dwattr $C$DW$69, DW_AT_type(*$C$DW$T$3)
     761                            .dwendtag $C$DW$T$40
     762                    
     763                    $C$DW$T$41      .dwtag  DW_TAG_pointer_type
     764                            .dwattr $C$DW$T$41, DW_AT_type(*$C$DW$T$40)
     765                            .dwattr $C$DW$T$41, DW_AT_address_class(0x20)
     766                    $C$DW$T$42      .dwtag  DW_TAG_typedef, DW_AT_name("TaskFunction_t")
     767                            .dwattr $C$DW$T$42, DW_AT_type(*$C$DW$T$41)
     768                            .dwattr $C$DW$T$42, DW_AT_language(DW_LANG_C)
     769                            .dwattr $C$DW$T$42, DW_AT_decl_file("C:\Users\DreyCow\workspace\TI_ARM_Tiva_Projects_EECS_690_
     770                            .dwattr $C$DW$T$42, DW_AT_decl_line(0x4d)
TI ARM Assembler PC v5.2.5 Mon Mar 28 00:41:02 2016

Tools Copyright (c) 1996-2015 Texas Instruments Incorporated
Task_PID.asm                                                         PAGE   15

     771                            .dwattr $C$DW$T$42, DW_AT_decl_column(0x10)
     772                    $C$DW$T$79      .dwtag  DW_TAG_const_type
     773                            .dwattr $C$DW$T$79, DW_AT_type(*$C$DW$T$2)
     774                    $C$DW$T$80      .dwtag  DW_TAG_pointer_type
     775                            .dwattr $C$DW$T$80, DW_AT_type(*$C$DW$T$79)
     776                            .dwattr $C$DW$T$80, DW_AT_address_class(0x20)
     777                    $C$DW$T$81      .dwtag  DW_TAG_const_type
     778                            .dwattr $C$DW$T$81, DW_AT_type(*$C$DW$T$80)
     779                    $C$DW$T$4       .dwtag  DW_TAG_base_type
     780                            .dwattr $C$DW$T$4, DW_AT_encoding(DW_ATE_boolean)
     781                            .dwattr $C$DW$T$4, DW_AT_name("bool")
     782                            .dwattr $C$DW$T$4, DW_AT_byte_size(0x01)
     783                    $C$DW$T$5       .dwtag  DW_TAG_base_type
     784                            .dwattr $C$DW$T$5, DW_AT_encoding(DW_ATE_signed_char)
     785                            .dwattr $C$DW$T$5, DW_AT_name("signed char")
     786                            .dwattr $C$DW$T$5, DW_AT_byte_size(0x01)
     787                    $C$DW$T$82      .dwtag  DW_TAG_typedef, DW_AT_name("int8_t")
     788                            .dwattr $C$DW$T$82, DW_AT_type(*$C$DW$T$5)
     789                            .dwattr $C$DW$T$82, DW_AT_language(DW_LANG_C)
     790                            .dwattr $C$DW$T$82, DW_AT_decl_file("C:/ti/ccsv6/tools/compiler/ti-cgt-arm_5.2.5/include/stdin
     791                            .dwattr $C$DW$T$82, DW_AT_decl_line(0x2a)
     792                            .dwattr $C$DW$T$82, DW_AT_decl_column(0x1d)
     793                    $C$DW$T$83      .dwtag  DW_TAG_typedef, DW_AT_name("int_least8_t")
     794                            .dwattr $C$DW$T$83, DW_AT_type(*$C$DW$T$82)
     795                            .dwattr $C$DW$T$83, DW_AT_language(DW_LANG_C)
     796                            .dwattr $C$DW$T$83, DW_AT_decl_file("C:/ti/ccsv6/tools/compiler/ti-cgt-arm_5.2.5/include/stdin
     797                            .dwattr $C$DW$T$83, DW_AT_decl_line(0x37)
     798                            .dwattr $C$DW$T$83, DW_AT_decl_column(0x17)
     799                    $C$DW$T$6       .dwtag  DW_TAG_base_type
     800                            .dwattr $C$DW$T$6, DW_AT_encoding(DW_ATE_unsigned_char)
     801                            .dwattr $C$DW$T$6, DW_AT_name("unsigned char")
     802                            .dwattr $C$DW$T$6, DW_AT_byte_size(0x01)
     803                    $C$DW$T$19      .dwtag  DW_TAG_pointer_type
     804                            .dwattr $C$DW$T$19, DW_AT_type(*$C$DW$T$6)
     805                            .dwattr $C$DW$T$19, DW_AT_address_class(0x20)
     806                    $C$DW$T$21      .dwtag  DW_TAG_typedef, DW_AT_name("uint8_t")
     807                            .dwattr $C$DW$T$21, DW_AT_type(*$C$DW$T$6)
     808                            .dwattr $C$DW$T$21, DW_AT_language(DW_LANG_C)
     809                            .dwattr $C$DW$T$21, DW_AT_decl_file("C:/ti/ccsv6/tools/compiler/ti-cgt-arm_5.2.5/include/stdin
     810                            .dwattr $C$DW$T$21, DW_AT_decl_line(0x2b)
     811                            .dwattr $C$DW$T$21, DW_AT_decl_column(0x1c)
     812                    $C$DW$T$22      .dwtag  DW_TAG_pointer_type
     813                            .dwattr $C$DW$T$22, DW_AT_type(*$C$DW$T$21)
     814                            .dwattr $C$DW$T$22, DW_AT_address_class(0x20)
     815                    $C$DW$T$84      .dwtag  DW_TAG_typedef, DW_AT_name("portCHAR")
     816                            .dwattr $C$DW$T$84, DW_AT_type(*$C$DW$T$21)
     817                            .dwattr $C$DW$T$84, DW_AT_language(DW_LANG_C)
     818                            .dwattr $C$DW$T$84, DW_AT_decl_file("C:/Users/DreyCow/workspace/TI_ARM_Tiva_Projects_EECS_690_
     819                            .dwattr $C$DW$T$84, DW_AT_decl_line(0x60)
     820                            .dwattr $C$DW$T$84, DW_AT_decl_column(0x12)
     821                    $C$DW$T$70      .dwtag  DW_TAG_const_type
     822                            .dwattr $C$DW$T$70, DW_AT_type(*$C$DW$T$21)
     823                    $C$DW$T$85      .dwtag  DW_TAG_typedef, DW_AT_name("uint_least8_t")
     824                            .dwattr $C$DW$T$85, DW_AT_type(*$C$DW$T$21)
     825                            .dwattr $C$DW$T$85, DW_AT_language(DW_LANG_C)
TI ARM Assembler PC v5.2.5 Mon Mar 28 00:41:02 2016

Tools Copyright (c) 1996-2015 Texas Instruments Incorporated
Task_PID.asm                                                         PAGE   16

     826                            .dwattr $C$DW$T$85, DW_AT_decl_file("C:/ti/ccsv6/tools/compiler/ti-cgt-arm_5.2.5/include/stdin
     827                            .dwattr $C$DW$T$85, DW_AT_decl_line(0x38)
     828                            .dwattr $C$DW$T$85, DW_AT_decl_column(0x16)
     829                    $C$DW$T$7       .dwtag  DW_TAG_base_type
     830                            .dwattr $C$DW$T$7, DW_AT_encoding(DW_ATE_signed_char)
     831                            .dwattr $C$DW$T$7, DW_AT_name("wchar_t")
     832                            .dwattr $C$DW$T$7, DW_AT_byte_size(0x02)
     833                    $C$DW$T$8       .dwtag  DW_TAG_base_type
     834                            .dwattr $C$DW$T$8, DW_AT_encoding(DW_ATE_signed)
     835                            .dwattr $C$DW$T$8, DW_AT_name("short")
     836                            .dwattr $C$DW$T$8, DW_AT_byte_size(0x02)
     837                    $C$DW$T$86      .dwtag  DW_TAG_typedef, DW_AT_name("int16_t")
     838                            .dwattr $C$DW$T$86, DW_AT_type(*$C$DW$T$8)
     839                            .dwattr $C$DW$T$86, DW_AT_language(DW_LANG_C)
     840                            .dwattr $C$DW$T$86, DW_AT_decl_file("C:/ti/ccsv6/tools/compiler/ti-cgt-arm_5.2.5/include/stdin
     841                            .dwattr $C$DW$T$86, DW_AT_decl_line(0x2c)
     842                            .dwattr $C$DW$T$86, DW_AT_decl_column(0x1d)
     843                    $C$DW$T$87      .dwtag  DW_TAG_typedef, DW_AT_name("int_least16_t")
     844                            .dwattr $C$DW$T$87, DW_AT_type(*$C$DW$T$86)
     845                            .dwattr $C$DW$T$87, DW_AT_language(DW_LANG_C)
     846                            .dwattr $C$DW$T$87, DW_AT_decl_file("C:/ti/ccsv6/tools/compiler/ti-cgt-arm_5.2.5/include/stdin
     847                            .dwattr $C$DW$T$87, DW_AT_decl_line(0x3a)
     848                            .dwattr $C$DW$T$87, DW_AT_decl_column(0x17)
     849                    $C$DW$T$88      .dwtag  DW_TAG_typedef, DW_AT_name("portSHORT")
     850                            .dwattr $C$DW$T$88, DW_AT_type(*$C$DW$T$86)
     851                            .dwattr $C$DW$T$88, DW_AT_language(DW_LANG_C)
     852                            .dwattr $C$DW$T$88, DW_AT_decl_file("C:/Users/DreyCow/workspace/TI_ARM_Tiva_Projects_EECS_690_
     853                            .dwattr $C$DW$T$88, DW_AT_decl_line(0x64)
     854                            .dwattr $C$DW$T$88, DW_AT_decl_column(0x12)
     855                    $C$DW$T$9       .dwtag  DW_TAG_base_type
     856                            .dwattr $C$DW$T$9, DW_AT_encoding(DW_ATE_unsigned)
     857                            .dwattr $C$DW$T$9, DW_AT_name("unsigned short")
     858                            .dwattr $C$DW$T$9, DW_AT_byte_size(0x02)
     859                    $C$DW$T$89      .dwtag  DW_TAG_typedef, DW_AT_name("_Wchart")
     860                            .dwattr $C$DW$T$89, DW_AT_type(*$C$DW$T$9)
     861                            .dwattr $C$DW$T$89, DW_AT_language(DW_LANG_C)
     862                            .dwattr $C$DW$T$89, DW_AT_decl_file("C:/ti/ccsv6/tools/compiler/ti-cgt-arm_5.2.5/include/yvals
     863                            .dwattr $C$DW$T$89, DW_AT_decl_line(0x1e5)
     864                            .dwattr $C$DW$T$89, DW_AT_decl_column(0x21)
     865                    $C$DW$T$90      .dwtag  DW_TAG_typedef, DW_AT_name("_Wintt")
     866                            .dwattr $C$DW$T$90, DW_AT_type(*$C$DW$T$9)
     867                            .dwattr $C$DW$T$90, DW_AT_language(DW_LANG_C)
     868                            .dwattr $C$DW$T$90, DW_AT_decl_file("C:/ti/ccsv6/tools/compiler/ti-cgt-arm_5.2.5/include/yvals
     869                            .dwattr $C$DW$T$90, DW_AT_decl_line(0x1e6)
     870                            .dwattr $C$DW$T$90, DW_AT_decl_column(0x21)
     871                    $C$DW$T$46      .dwtag  DW_TAG_typedef, DW_AT_name("uint16_t")
     872                            .dwattr $C$DW$T$46, DW_AT_type(*$C$DW$T$9)
     873                            .dwattr $C$DW$T$46, DW_AT_language(DW_LANG_C)
     874                            .dwattr $C$DW$T$46, DW_AT_decl_file("C:/ti/ccsv6/tools/compiler/ti-cgt-arm_5.2.5/include/stdin
     875                            .dwattr $C$DW$T$46, DW_AT_decl_line(0x2d)
     876                            .dwattr $C$DW$T$46, DW_AT_decl_column(0x1c)
     877                    $C$DW$T$91      .dwtag  DW_TAG_typedef, DW_AT_name("uint_least16_t")
     878                            .dwattr $C$DW$T$91, DW_AT_type(*$C$DW$T$46)
     879                            .dwattr $C$DW$T$91, DW_AT_language(DW_LANG_C)
     880                            .dwattr $C$DW$T$91, DW_AT_decl_file("C:/ti/ccsv6/tools/compiler/ti-cgt-arm_5.2.5/include/stdin
TI ARM Assembler PC v5.2.5 Mon Mar 28 00:41:02 2016

Tools Copyright (c) 1996-2015 Texas Instruments Incorporated
Task_PID.asm                                                         PAGE   17

     881                            .dwattr $C$DW$T$91, DW_AT_decl_line(0x3b)
     882                            .dwattr $C$DW$T$91, DW_AT_decl_column(0x16)
     883                    $C$DW$T$92      .dwtag  DW_TAG_typedef, DW_AT_name("wchar_t")
     884                            .dwattr $C$DW$T$92, DW_AT_type(*$C$DW$T$9)
     885                            .dwattr $C$DW$T$92, DW_AT_language(DW_LANG_C)
     886                            .dwattr $C$DW$T$92, DW_AT_decl_file("C:/ti/ccsv6/tools/compiler/ti-cgt-arm_5.2.5/include/stdde
     887                            .dwattr $C$DW$T$92, DW_AT_decl_line(0x41)
     888                            .dwattr $C$DW$T$92, DW_AT_decl_column(0x1a)
     889                    $C$DW$T$10      .dwtag  DW_TAG_base_type
     890                            .dwattr $C$DW$T$10, DW_AT_encoding(DW_ATE_signed)
     891                            .dwattr $C$DW$T$10, DW_AT_name("int")
     892                            .dwattr $C$DW$T$10, DW_AT_byte_size(0x04)
     893                    $C$DW$T$93      .dwtag  DW_TAG_typedef, DW_AT_name("_Ptrdifft")
     894                            .dwattr $C$DW$T$93, DW_AT_type(*$C$DW$T$10)
     895                            .dwattr $C$DW$T$93, DW_AT_language(DW_LANG_C)
     896                            .dwattr $C$DW$T$93, DW_AT_decl_file("C:/ti/ccsv6/tools/compiler/ti-cgt-arm_5.2.5/include/yvals
     897                            .dwattr $C$DW$T$93, DW_AT_decl_line(0xa9)
     898                            .dwattr $C$DW$T$93, DW_AT_decl_column(0x1e)
     899                    $C$DW$T$56      .dwtag  DW_TAG_typedef, DW_AT_name("int32_t")
     900                            .dwattr $C$DW$T$56, DW_AT_type(*$C$DW$T$10)
     901                            .dwattr $C$DW$T$56, DW_AT_language(DW_LANG_C)
     902                            .dwattr $C$DW$T$56, DW_AT_decl_file("C:/ti/ccsv6/tools/compiler/ti-cgt-arm_5.2.5/include/stdin
     903                            .dwattr $C$DW$T$56, DW_AT_decl_line(0x2e)
     904                            .dwattr $C$DW$T$56, DW_AT_decl_column(0x1d)
     905                    $C$DW$T$57      .dwtag  DW_TAG_typedef, DW_AT_name("BaseType_t")
     906                            .dwattr $C$DW$T$57, DW_AT_type(*$C$DW$T$56)
     907                            .dwattr $C$DW$T$57, DW_AT_language(DW_LANG_C)
     908                            .dwattr $C$DW$T$57, DW_AT_decl_file("C:/Users/DreyCow/workspace/TI_ARM_Tiva_Projects_EECS_690_
     909                            .dwattr $C$DW$T$57, DW_AT_decl_line(0x69)
     910                            .dwattr $C$DW$T$57, DW_AT_decl_column(0x12)
     911                    $C$DW$T$94      .dwtag  DW_TAG_const_type
     912                            .dwattr $C$DW$T$94, DW_AT_type(*$C$DW$T$57)
     913                    
     914                    $C$DW$T$99      .dwtag  DW_TAG_subroutine_type
     915                            .dwattr $C$DW$T$99, DW_AT_type(*$C$DW$T$57)
     916                            .dwattr $C$DW$T$99, DW_AT_language(DW_LANG_C)
     917                    $C$DW$70        .dwtag  DW_TAG_formal_parameter
     918                            .dwattr $C$DW$70, DW_AT_type(*$C$DW$T$3)
     919                            .dwendtag $C$DW$T$99
     920                    
     921                    $C$DW$T$100     .dwtag  DW_TAG_pointer_type
     922                            .dwattr $C$DW$T$100, DW_AT_type(*$C$DW$T$99)
     923                            .dwattr $C$DW$T$100, DW_AT_address_class(0x20)
     924                    $C$DW$T$101     .dwtag  DW_TAG_typedef, DW_AT_name("TaskHookFunction_t")
     925                            .dwattr $C$DW$T$101, DW_AT_type(*$C$DW$T$100)
     926                            .dwattr $C$DW$T$101, DW_AT_language(DW_LANG_C)
     927                            .dwattr $C$DW$T$101, DW_AT_decl_file("C:/Users/DreyCow/workspace/TI_ARM_Tiva_Projects_EECS_690
     928                            .dwattr $C$DW$T$101, DW_AT_decl_line(0x6d)
     929                            .dwattr $C$DW$T$101, DW_AT_decl_column(0x16)
     930                    $C$DW$T$102     .dwtag  DW_TAG_typedef, DW_AT_name("int_fast16_t")
     931                            .dwattr $C$DW$T$102, DW_AT_type(*$C$DW$T$56)
     932                            .dwattr $C$DW$T$102, DW_AT_language(DW_LANG_C)
     933                            .dwattr $C$DW$T$102, DW_AT_decl_file("C:/ti/ccsv6/tools/compiler/ti-cgt-arm_5.2.5/include/stdi
     934                            .dwattr $C$DW$T$102, DW_AT_decl_line(0x47)
     935                            .dwattr $C$DW$T$102, DW_AT_decl_column(0x17)
TI ARM Assembler PC v5.2.5 Mon Mar 28 00:41:02 2016

Tools Copyright (c) 1996-2015 Texas Instruments Incorporated
Task_PID.asm                                                         PAGE   18

     936                    $C$DW$T$103     .dwtag  DW_TAG_typedef, DW_AT_name("int_fast32_t")
     937                            .dwattr $C$DW$T$103, DW_AT_type(*$C$DW$T$56)
     938                            .dwattr $C$DW$T$103, DW_AT_language(DW_LANG_C)
     939                            .dwattr $C$DW$T$103, DW_AT_decl_file("C:/ti/ccsv6/tools/compiler/ti-cgt-arm_5.2.5/include/stdi
     940                            .dwattr $C$DW$T$103, DW_AT_decl_line(0x4a)
     941                            .dwattr $C$DW$T$103, DW_AT_decl_column(0x17)
     942                    $C$DW$T$104     .dwtag  DW_TAG_typedef, DW_AT_name("int_fast8_t")
     943                            .dwattr $C$DW$T$104, DW_AT_type(*$C$DW$T$56)
     944                            .dwattr $C$DW$T$104, DW_AT_language(DW_LANG_C)
     945                            .dwattr $C$DW$T$104, DW_AT_decl_file("C:/ti/ccsv6/tools/compiler/ti-cgt-arm_5.2.5/include/stdi
     946                            .dwattr $C$DW$T$104, DW_AT_decl_line(0x45)
     947                            .dwattr $C$DW$T$104, DW_AT_decl_column(0x17)
     948                    $C$DW$T$105     .dwtag  DW_TAG_typedef, DW_AT_name("int_least32_t")
     949                            .dwattr $C$DW$T$105, DW_AT_type(*$C$DW$T$56)
     950                            .dwattr $C$DW$T$105, DW_AT_language(DW_LANG_C)
     951                            .dwattr $C$DW$T$105, DW_AT_decl_file("C:/ti/ccsv6/tools/compiler/ti-cgt-arm_5.2.5/include/stdi
     952                            .dwattr $C$DW$T$105, DW_AT_decl_line(0x3c)
     953                            .dwattr $C$DW$T$105, DW_AT_decl_column(0x17)
     954                    $C$DW$T$106     .dwtag  DW_TAG_typedef, DW_AT_name("portBASE_TYPE")
     955                            .dwattr $C$DW$T$106, DW_AT_type(*$C$DW$T$56)
     956                            .dwattr $C$DW$T$106, DW_AT_language(DW_LANG_C)
     957                            .dwattr $C$DW$T$106, DW_AT_decl_file("C:/Users/DreyCow/workspace/TI_ARM_Tiva_Projects_EECS_690
     958                            .dwattr $C$DW$T$106, DW_AT_decl_line(0x66)
     959                            .dwattr $C$DW$T$106, DW_AT_decl_column(0x12)
     960                    $C$DW$T$107     .dwtag  DW_TAG_typedef, DW_AT_name("portLONG")
     961                            .dwattr $C$DW$T$107, DW_AT_type(*$C$DW$T$56)
     962                            .dwattr $C$DW$T$107, DW_AT_language(DW_LANG_C)
     963                            .dwattr $C$DW$T$107, DW_AT_decl_file("C:/Users/DreyCow/workspace/TI_ARM_Tiva_Projects_EECS_690
     964                            .dwattr $C$DW$T$107, DW_AT_decl_line(0x63)
     965                            .dwattr $C$DW$T$107, DW_AT_decl_column(0x12)
     966                    $C$DW$T$108     .dwtag  DW_TAG_typedef, DW_AT_name("intptr_t")
     967                            .dwattr $C$DW$T$108, DW_AT_type(*$C$DW$T$10)
     968                            .dwattr $C$DW$T$108, DW_AT_language(DW_LANG_C)
     969                            .dwattr $C$DW$T$108, DW_AT_decl_file("C:/ti/ccsv6/tools/compiler/ti-cgt-arm_5.2.5/include/stdi
     970                            .dwattr $C$DW$T$108, DW_AT_decl_line(0x52)
     971                            .dwattr $C$DW$T$108, DW_AT_decl_column(0x1a)
     972                    $C$DW$T$109     .dwtag  DW_TAG_typedef, DW_AT_name("ptrdiff_t")
     973                            .dwattr $C$DW$T$109, DW_AT_type(*$C$DW$T$10)
     974                            .dwattr $C$DW$T$109, DW_AT_language(DW_LANG_C)
     975                            .dwattr $C$DW$T$109, DW_AT_decl_file("C:/ti/ccsv6/tools/compiler/ti-cgt-arm_5.2.5/include/stdd
     976                            .dwattr $C$DW$T$109, DW_AT_decl_line(0x36)
     977                            .dwattr $C$DW$T$109, DW_AT_decl_column(0x1c)
     978                    $C$DW$T$11      .dwtag  DW_TAG_base_type
     979                            .dwattr $C$DW$T$11, DW_AT_encoding(DW_ATE_unsigned)
     980                            .dwattr $C$DW$T$11, DW_AT_name("unsigned int")
     981                            .dwattr $C$DW$T$11, DW_AT_byte_size(0x04)
     982                    $C$DW$T$110     .dwtag  DW_TAG_typedef, DW_AT_name("_Sizet")
     983                            .dwattr $C$DW$T$110, DW_AT_type(*$C$DW$T$11)
     984                            .dwattr $C$DW$T$110, DW_AT_language(DW_LANG_C)
     985                            .dwattr $C$DW$T$110, DW_AT_decl_file("C:/ti/ccsv6/tools/compiler/ti-cgt-arm_5.2.5/include/yval
     986                            .dwattr $C$DW$T$110, DW_AT_decl_line(0xab)
     987                            .dwattr $C$DW$T$110, DW_AT_decl_column(0x1a)
     988                    $C$DW$T$23      .dwtag  DW_TAG_typedef, DW_AT_name("size_t")
     989                            .dwattr $C$DW$T$23, DW_AT_type(*$C$DW$T$11)
     990                            .dwattr $C$DW$T$23, DW_AT_language(DW_LANG_C)
TI ARM Assembler PC v5.2.5 Mon Mar 28 00:41:02 2016

Tools Copyright (c) 1996-2015 Texas Instruments Incorporated
Task_PID.asm                                                         PAGE   19

     991                            .dwattr $C$DW$T$23, DW_AT_decl_file("C:/ti/ccsv6/tools/compiler/ti-cgt-arm_5.2.5/include/stdde
     992                            .dwattr $C$DW$T$23, DW_AT_decl_line(0x3a)
     993                            .dwattr $C$DW$T$23, DW_AT_decl_column(0x19)
     994                    $C$DW$T$28      .dwtag  DW_TAG_typedef, DW_AT_name("uint32_t")
     995                            .dwattr $C$DW$T$28, DW_AT_type(*$C$DW$T$11)
     996                            .dwattr $C$DW$T$28, DW_AT_language(DW_LANG_C)
     997                            .dwattr $C$DW$T$28, DW_AT_decl_file("C:/ti/ccsv6/tools/compiler/ti-cgt-arm_5.2.5/include/stdin
     998                            .dwattr $C$DW$T$28, DW_AT_decl_line(0x2f)
     999                            .dwattr $C$DW$T$28, DW_AT_decl_column(0x1c)
    1000                    $C$DW$T$47      .dwtag  DW_TAG_typedef, DW_AT_name("StackType_t")
    1001                            .dwattr $C$DW$T$47, DW_AT_type(*$C$DW$T$28)
    1002                            .dwattr $C$DW$T$47, DW_AT_language(DW_LANG_C)
    1003                            .dwattr $C$DW$T$47, DW_AT_decl_file("C:/Users/DreyCow/workspace/TI_ARM_Tiva_Projects_EECS_690_
    1004                            .dwattr $C$DW$T$47, DW_AT_decl_line(0x68)
    1005                            .dwattr $C$DW$T$47, DW_AT_decl_column(0x12)
    1006                    $C$DW$T$48      .dwtag  DW_TAG_pointer_type
    1007                            .dwattr $C$DW$T$48, DW_AT_type(*$C$DW$T$47)
    1008                            .dwattr $C$DW$T$48, DW_AT_address_class(0x20)
    1009                    $C$DW$T$35      .dwtag  DW_TAG_typedef, DW_AT_name("TickType_t")
    1010                            .dwattr $C$DW$T$35, DW_AT_type(*$C$DW$T$28)
    1011                            .dwattr $C$DW$T$35, DW_AT_language(DW_LANG_C)
    1012                            .dwattr $C$DW$T$35, DW_AT_decl_file("C:/Users/DreyCow/workspace/TI_ARM_Tiva_Projects_EECS_690_
    1013                            .dwattr $C$DW$T$35, DW_AT_decl_line(0x70)
    1014                            .dwattr $C$DW$T$35, DW_AT_decl_column(0x13)
    1015                    $C$DW$T$76      .dwtag  DW_TAG_const_type
    1016                            .dwattr $C$DW$T$76, DW_AT_type(*$C$DW$T$35)
    1017                    $C$DW$T$30      .dwtag  DW_TAG_typedef, DW_AT_name("UBaseType_t")
    1018                            .dwattr $C$DW$T$30, DW_AT_type(*$C$DW$T$28)
    1019                            .dwattr $C$DW$T$30, DW_AT_language(DW_LANG_C)
    1020                            .dwattr $C$DW$T$30, DW_AT_decl_file("C:/Users/DreyCow/workspace/TI_ARM_Tiva_Projects_EECS_690_
    1021                            .dwattr $C$DW$T$30, DW_AT_decl_line(0x6a)
    1022                            .dwattr $C$DW$T$30, DW_AT_decl_column(0x12)
    1023                    $C$DW$T$69      .dwtag  DW_TAG_const_type
    1024                            .dwattr $C$DW$T$69, DW_AT_type(*$C$DW$T$30)
    1025                    $C$DW$T$111     .dwtag  DW_TAG_typedef, DW_AT_name("portSTACK_TYPE")
    1026                            .dwattr $C$DW$T$111, DW_AT_type(*$C$DW$T$28)
    1027                            .dwattr $C$DW$T$111, DW_AT_language(DW_LANG_C)
    1028                            .dwattr $C$DW$T$111, DW_AT_decl_file("C:/Users/DreyCow/workspace/TI_ARM_Tiva_Projects_EECS_690
    1029                            .dwattr $C$DW$T$111, DW_AT_decl_line(0x65)
    1030                            .dwattr $C$DW$T$111, DW_AT_decl_column(0x12)
    1031                    $C$DW$T$112     .dwtag  DW_TAG_volatile_type
    1032                            .dwattr $C$DW$T$112, DW_AT_type(*$C$DW$T$28)
    1033                    $C$DW$T$113     .dwtag  DW_TAG_typedef, DW_AT_name("uint_fast16_t")
    1034                            .dwattr $C$DW$T$113, DW_AT_type(*$C$DW$T$28)
    1035                            .dwattr $C$DW$T$113, DW_AT_language(DW_LANG_C)
    1036                            .dwattr $C$DW$T$113, DW_AT_decl_file("C:/ti/ccsv6/tools/compiler/ti-cgt-arm_5.2.5/include/stdi
    1037                            .dwattr $C$DW$T$113, DW_AT_decl_line(0x48)
    1038                            .dwattr $C$DW$T$113, DW_AT_decl_column(0x16)
    1039                    $C$DW$T$114     .dwtag  DW_TAG_typedef, DW_AT_name("uint_fast32_t")
    1040                            .dwattr $C$DW$T$114, DW_AT_type(*$C$DW$T$28)
    1041                            .dwattr $C$DW$T$114, DW_AT_language(DW_LANG_C)
    1042                            .dwattr $C$DW$T$114, DW_AT_decl_file("C:/ti/ccsv6/tools/compiler/ti-cgt-arm_5.2.5/include/stdi
    1043                            .dwattr $C$DW$T$114, DW_AT_decl_line(0x4b)
    1044                            .dwattr $C$DW$T$114, DW_AT_decl_column(0x16)
    1045                    $C$DW$T$115     .dwtag  DW_TAG_typedef, DW_AT_name("uint_fast8_t")
TI ARM Assembler PC v5.2.5 Mon Mar 28 00:41:02 2016

Tools Copyright (c) 1996-2015 Texas Instruments Incorporated
Task_PID.asm                                                         PAGE   20

    1046                            .dwattr $C$DW$T$115, DW_AT_type(*$C$DW$T$28)
    1047                            .dwattr $C$DW$T$115, DW_AT_language(DW_LANG_C)
    1048                            .dwattr $C$DW$T$115, DW_AT_decl_file("C:/ti/ccsv6/tools/compiler/ti-cgt-arm_5.2.5/include/stdi
    1049                            .dwattr $C$DW$T$115, DW_AT_decl_line(0x46)
    1050                            .dwattr $C$DW$T$115, DW_AT_decl_column(0x16)
    1051                    $C$DW$T$116     .dwtag  DW_TAG_typedef, DW_AT_name("uint_least32_t")
    1052                            .dwattr $C$DW$T$116, DW_AT_type(*$C$DW$T$28)
    1053                            .dwattr $C$DW$T$116, DW_AT_language(DW_LANG_C)
    1054                            .dwattr $C$DW$T$116, DW_AT_decl_file("C:/ti/ccsv6/tools/compiler/ti-cgt-arm_5.2.5/include/stdi
    1055                            .dwattr $C$DW$T$116, DW_AT_decl_line(0x3d)
    1056                            .dwattr $C$DW$T$116, DW_AT_decl_column(0x16)
    1057                    $C$DW$T$117     .dwtag  DW_TAG_typedef, DW_AT_name("uintptr_t")
    1058                            .dwattr $C$DW$T$117, DW_AT_type(*$C$DW$T$11)
    1059                            .dwattr $C$DW$T$117, DW_AT_language(DW_LANG_C)
    1060                            .dwattr $C$DW$T$117, DW_AT_decl_file("C:/ti/ccsv6/tools/compiler/ti-cgt-arm_5.2.5/include/stdi
    1061                            .dwattr $C$DW$T$117, DW_AT_decl_line(0x53)
    1062                            .dwattr $C$DW$T$117, DW_AT_decl_column(0x1a)
    1063                    $C$DW$T$12      .dwtag  DW_TAG_base_type
    1064                            .dwattr $C$DW$T$12, DW_AT_encoding(DW_ATE_signed)
    1065                            .dwattr $C$DW$T$12, DW_AT_name("long")
    1066                            .dwattr $C$DW$T$12, DW_AT_byte_size(0x04)
    1067                    $C$DW$T$118     .dwtag  DW_TAG_typedef, DW_AT_name("_Int32t")
    1068                            .dwattr $C$DW$T$118, DW_AT_type(*$C$DW$T$12)
    1069                            .dwattr $C$DW$T$118, DW_AT_language(DW_LANG_C)
    1070                            .dwattr $C$DW$T$118, DW_AT_decl_file("C:/ti/ccsv6/tools/compiler/ti-cgt-arm_5.2.5/include/yval
    1071                            .dwattr $C$DW$T$118, DW_AT_decl_line(0xa6)
    1072                            .dwattr $C$DW$T$118, DW_AT_decl_column(0x0e)
    1073                    $C$DW$T$119     .dwtag  DW_TAG_typedef, DW_AT_name("fpos_t")
    1074                            .dwattr $C$DW$T$119, DW_AT_type(*$C$DW$T$12)
    1075                            .dwattr $C$DW$T$119, DW_AT_language(DW_LANG_C)
    1076                            .dwattr $C$DW$T$119, DW_AT_decl_file("C:/ti/ccsv6/tools/compiler/ti-cgt-arm_5.2.5/include/stdi
    1077                            .dwattr $C$DW$T$119, DW_AT_decl_line(0x6e)
    1078                            .dwattr $C$DW$T$119, DW_AT_decl_column(0x0e)
    1079                    $C$DW$T$13      .dwtag  DW_TAG_base_type
    1080                            .dwattr $C$DW$T$13, DW_AT_encoding(DW_ATE_unsigned)
    1081                            .dwattr $C$DW$T$13, DW_AT_name("unsigned long")
    1082                            .dwattr $C$DW$T$13, DW_AT_byte_size(0x04)
    1083                    $C$DW$T$120     .dwtag  DW_TAG_typedef, DW_AT_name("_Uint32t")
    1084                            .dwattr $C$DW$T$120, DW_AT_type(*$C$DW$T$13)
    1085                            .dwattr $C$DW$T$120, DW_AT_language(DW_LANG_C)
    1086                            .dwattr $C$DW$T$120, DW_AT_decl_file("C:/ti/ccsv6/tools/compiler/ti-cgt-arm_5.2.5/include/yval
    1087                            .dwattr $C$DW$T$120, DW_AT_decl_line(0xa7)
    1088                            .dwattr $C$DW$T$120, DW_AT_decl_column(0x17)
    1089                    $C$DW$T$14      .dwtag  DW_TAG_base_type
    1090                            .dwattr $C$DW$T$14, DW_AT_encoding(DW_ATE_signed)
    1091                            .dwattr $C$DW$T$14, DW_AT_name("long long")
    1092                            .dwattr $C$DW$T$14, DW_AT_byte_size(0x08)
    1093                    $C$DW$T$121     .dwtag  DW_TAG_typedef, DW_AT_name("_Longlong")
    1094                            .dwattr $C$DW$T$121, DW_AT_type(*$C$DW$T$14)
    1095                            .dwattr $C$DW$T$121, DW_AT_language(DW_LANG_C)
    1096                            .dwattr $C$DW$T$121, DW_AT_decl_file("C:/ti/ccsv6/tools/compiler/ti-cgt-arm_5.2.5/include/yval
    1097                            .dwattr $C$DW$T$121, DW_AT_decl_line(0x1b5)
    1098                            .dwattr $C$DW$T$121, DW_AT_decl_column(0x13)
    1099                    $C$DW$T$122     .dwtag  DW_TAG_typedef, DW_AT_name("int64_t")
    1100                            .dwattr $C$DW$T$122, DW_AT_type(*$C$DW$T$14)
TI ARM Assembler PC v5.2.5 Mon Mar 28 00:41:02 2016

Tools Copyright (c) 1996-2015 Texas Instruments Incorporated
Task_PID.asm                                                         PAGE   21

    1101                            .dwattr $C$DW$T$122, DW_AT_language(DW_LANG_C)
    1102                            .dwattr $C$DW$T$122, DW_AT_decl_file("C:/ti/ccsv6/tools/compiler/ti-cgt-arm_5.2.5/include/stdi
    1103                            .dwattr $C$DW$T$122, DW_AT_decl_line(0x32)
    1104                            .dwattr $C$DW$T$122, DW_AT_decl_column(0x21)
    1105                    $C$DW$T$123     .dwtag  DW_TAG_typedef, DW_AT_name("int_fast64_t")
    1106                            .dwattr $C$DW$T$123, DW_AT_type(*$C$DW$T$122)
    1107                            .dwattr $C$DW$T$123, DW_AT_language(DW_LANG_C)
    1108                            .dwattr $C$DW$T$123, DW_AT_decl_file("C:/ti/ccsv6/tools/compiler/ti-cgt-arm_5.2.5/include/stdi
    1109                            .dwattr $C$DW$T$123, DW_AT_decl_line(0x4e)
    1110                            .dwattr $C$DW$T$123, DW_AT_decl_column(0x17)
    1111                    $C$DW$T$124     .dwtag  DW_TAG_typedef, DW_AT_name("int_least64_t")
    1112                            .dwattr $C$DW$T$124, DW_AT_type(*$C$DW$T$122)
    1113                            .dwattr $C$DW$T$124, DW_AT_language(DW_LANG_C)
    1114                            .dwattr $C$DW$T$124, DW_AT_decl_file("C:/ti/ccsv6/tools/compiler/ti-cgt-arm_5.2.5/include/stdi
    1115                            .dwattr $C$DW$T$124, DW_AT_decl_line(0x40)
    1116                            .dwattr $C$DW$T$124, DW_AT_decl_column(0x17)
    1117                    $C$DW$T$125     .dwtag  DW_TAG_typedef, DW_AT_name("portDOUBLE")
    1118                            .dwattr $C$DW$T$125, DW_AT_type(*$C$DW$T$122)
    1119                            .dwattr $C$DW$T$125, DW_AT_language(DW_LANG_C)
    1120                            .dwattr $C$DW$T$125, DW_AT_decl_file("C:/Users/DreyCow/workspace/TI_ARM_Tiva_Projects_EECS_690
    1121                            .dwattr $C$DW$T$125, DW_AT_decl_line(0x62)
    1122                            .dwattr $C$DW$T$125, DW_AT_decl_column(0x12)
    1123                    $C$DW$T$126     .dwtag  DW_TAG_typedef, DW_AT_name("intmax_t")
    1124                            .dwattr $C$DW$T$126, DW_AT_type(*$C$DW$T$14)
    1125                            .dwattr $C$DW$T$126, DW_AT_language(DW_LANG_C)
    1126                            .dwattr $C$DW$T$126, DW_AT_decl_file("C:/ti/ccsv6/tools/compiler/ti-cgt-arm_5.2.5/include/stdi
    1127                            .dwattr $C$DW$T$126, DW_AT_decl_line(0x56)
    1128                            .dwattr $C$DW$T$126, DW_AT_decl_column(0x20)
    1129                    $C$DW$T$15      .dwtag  DW_TAG_base_type
    1130                            .dwattr $C$DW$T$15, DW_AT_encoding(DW_ATE_unsigned)
    1131                            .dwattr $C$DW$T$15, DW_AT_name("unsigned long long")
    1132                            .dwattr $C$DW$T$15, DW_AT_byte_size(0x08)
    1133                    $C$DW$T$127     .dwtag  DW_TAG_typedef, DW_AT_name("_ULonglong")
    1134                            .dwattr $C$DW$T$127, DW_AT_type(*$C$DW$T$15)
    1135                            .dwattr $C$DW$T$127, DW_AT_language(DW_LANG_C)
    1136                            .dwattr $C$DW$T$127, DW_AT_decl_file("C:/ti/ccsv6/tools/compiler/ti-cgt-arm_5.2.5/include/yval
    1137                            .dwattr $C$DW$T$127, DW_AT_decl_line(0x1b6)
    1138                            .dwattr $C$DW$T$127, DW_AT_decl_column(0x14)
    1139                    $C$DW$T$128     .dwtag  DW_TAG_typedef, DW_AT_name("uint64_t")
    1140                            .dwattr $C$DW$T$128, DW_AT_type(*$C$DW$T$15)
    1141                            .dwattr $C$DW$T$128, DW_AT_language(DW_LANG_C)
    1142                            .dwattr $C$DW$T$128, DW_AT_decl_file("C:/ti/ccsv6/tools/compiler/ti-cgt-arm_5.2.5/include/stdi
    1143                            .dwattr $C$DW$T$128, DW_AT_decl_line(0x33)
    1144                            .dwattr $C$DW$T$128, DW_AT_decl_column(0x20)
    1145                    $C$DW$T$129     .dwtag  DW_TAG_typedef, DW_AT_name("uint_fast64_t")
    1146                            .dwattr $C$DW$T$129, DW_AT_type(*$C$DW$T$128)
    1147                            .dwattr $C$DW$T$129, DW_AT_language(DW_LANG_C)
    1148                            .dwattr $C$DW$T$129, DW_AT_decl_file("C:/ti/ccsv6/tools/compiler/ti-cgt-arm_5.2.5/include/stdi
    1149                            .dwattr $C$DW$T$129, DW_AT_decl_line(0x4f)
    1150                            .dwattr $C$DW$T$129, DW_AT_decl_column(0x16)
    1151                    $C$DW$T$130     .dwtag  DW_TAG_typedef, DW_AT_name("uint_least64_t")
    1152                            .dwattr $C$DW$T$130, DW_AT_type(*$C$DW$T$128)
    1153                            .dwattr $C$DW$T$130, DW_AT_language(DW_LANG_C)
    1154                            .dwattr $C$DW$T$130, DW_AT_decl_file("C:/ti/ccsv6/tools/compiler/ti-cgt-arm_5.2.5/include/stdi
    1155                            .dwattr $C$DW$T$130, DW_AT_decl_line(0x41)
TI ARM Assembler PC v5.2.5 Mon Mar 28 00:41:02 2016

Tools Copyright (c) 1996-2015 Texas Instruments Incorporated
Task_PID.asm                                                         PAGE   22

    1156                            .dwattr $C$DW$T$130, DW_AT_decl_column(0x16)
    1157                    $C$DW$T$131     .dwtag  DW_TAG_typedef, DW_AT_name("uintmax_t")
    1158                            .dwattr $C$DW$T$131, DW_AT_type(*$C$DW$T$15)
    1159                            .dwattr $C$DW$T$131, DW_AT_language(DW_LANG_C)
    1160                            .dwattr $C$DW$T$131, DW_AT_decl_file("C:/ti/ccsv6/tools/compiler/ti-cgt-arm_5.2.5/include/stdi
    1161                            .dwattr $C$DW$T$131, DW_AT_decl_line(0x57)
    1162                            .dwattr $C$DW$T$131, DW_AT_decl_column(0x20)
    1163                    $C$DW$T$16      .dwtag  DW_TAG_base_type
    1164                            .dwattr $C$DW$T$16, DW_AT_encoding(DW_ATE_float)
    1165                            .dwattr $C$DW$T$16, DW_AT_name("float")
    1166                            .dwattr $C$DW$T$16, DW_AT_byte_size(0x04)
    1167                    $C$DW$T$132     .dwtag  DW_TAG_typedef, DW_AT_name("portFLOAT")
    1168                            .dwattr $C$DW$T$132, DW_AT_type(*$C$DW$T$16)
    1169                            .dwattr $C$DW$T$132, DW_AT_language(DW_LANG_C)
    1170                            .dwattr $C$DW$T$132, DW_AT_decl_file("C:/Users/DreyCow/workspace/TI_ARM_Tiva_Projects_EECS_690
    1171                            .dwattr $C$DW$T$132, DW_AT_decl_line(0x61)
    1172                            .dwattr $C$DW$T$132, DW_AT_decl_column(0x10)
    1173                    $C$DW$T$17      .dwtag  DW_TAG_base_type
    1174                            .dwattr $C$DW$T$17, DW_AT_encoding(DW_ATE_float)
    1175                            .dwattr $C$DW$T$17, DW_AT_name("double")
    1176                            .dwattr $C$DW$T$17, DW_AT_byte_size(0x08)
    1177                    $C$DW$T$18      .dwtag  DW_TAG_base_type
    1178                            .dwattr $C$DW$T$18, DW_AT_encoding(DW_ATE_float)
    1179                            .dwattr $C$DW$T$18, DW_AT_name("long double")
    1180                            .dwattr $C$DW$T$18, DW_AT_byte_size(0x08)
    1181                    $C$DW$T$133     .dwtag  DW_TAG_typedef, DW_AT_name("_Sysch_t")
    1182                            .dwattr $C$DW$T$133, DW_AT_type(*$C$DW$T$6)
    1183                            .dwattr $C$DW$T$133, DW_AT_language(DW_LANG_C)
    1184                            .dwattr $C$DW$T$133, DW_AT_decl_file("C:/ti/ccsv6/tools/compiler/ti-cgt-arm_5.2.5/include/yval
    1185                            .dwattr $C$DW$T$133, DW_AT_decl_line(0x218)
    1186                            .dwattr $C$DW$T$133, DW_AT_decl_column(0x0e)
    1187                    
    1188                    $C$DW$T$27      .dwtag  DW_TAG_array_type
    1189                            .dwattr $C$DW$T$27, DW_AT_type(*$C$DW$T$6)
    1190                            .dwattr $C$DW$T$27, DW_AT_language(DW_LANG_C)
    1191                            .dwattr $C$DW$T$27, DW_AT_byte_size(0x14)
    1192                    $C$DW$71        .dwtag  DW_TAG_subrange_type
    1193                            .dwattr $C$DW$71, DW_AT_upper_bound(0x13)
    1194                            .dwendtag $C$DW$T$27
    1195                    
    1196                    $C$DW$T$43      .dwtag  DW_TAG_const_type
    1197                            .dwattr $C$DW$T$43, DW_AT_type(*$C$DW$T$6)
    1198                    $C$DW$T$44      .dwtag  DW_TAG_pointer_type
    1199                            .dwattr $C$DW$T$44, DW_AT_type(*$C$DW$T$43)
    1200                            .dwattr $C$DW$T$44, DW_AT_address_class(0x20)
    1201                    $C$DW$T$45      .dwtag  DW_TAG_const_type
    1202                            .dwattr $C$DW$T$45, DW_AT_type(*$C$DW$T$44)
    1203                    $C$DW$T$134     .dwtag  DW_TAG_pointer_type
    1204                            .dwattr $C$DW$T$134, DW_AT_type(*$C$DW$T$6)
    1205                            .dwattr $C$DW$T$134, DW_AT_address_class(0x20)
    1206                    $C$DW$T$135     .dwtag  DW_TAG_typedef, DW_AT_name("__builtin_va_list")
    1207                            .dwattr $C$DW$T$135, DW_AT_type(*$C$DW$T$134)
    1208                            .dwattr $C$DW$T$135, DW_AT_language(DW_LANG_C)
    1209                            .dwattr $C$DW$T$135, DW_AT_decl_file("../Tasks/Task_PID.c")
    1210                            .dwattr $C$DW$T$135, DW_AT_decl_line(0x5e)
TI ARM Assembler PC v5.2.5 Mon Mar 28 00:41:02 2016

Tools Copyright (c) 1996-2015 Texas Instruments Incorporated
Task_PID.asm                                                         PAGE   23

    1211                            .dwattr $C$DW$T$135, DW_AT_decl_column(0x01)
    1212                    
    1213                    $C$DW$T$25      .dwtag  DW_TAG_structure_type
    1214                            .dwattr $C$DW$T$25, DW_AT_name("__va_list")
    1215                            .dwattr $C$DW$T$25, DW_AT_byte_size(0x04)
    1216                    $C$DW$72        .dwtag  DW_TAG_member
    1217                            .dwattr $C$DW$72, DW_AT_type(*$C$DW$T$3)
    1218                            .dwattr $C$DW$72, DW_AT_name("__ap")
    1219                            .dwattr $C$DW$72, DW_AT_TI_symbol_name("__ap")
    1220                            .dwattr $C$DW$72, DW_AT_data_member_location[DW_OP_plus_uconst 0x0]
    1221                            .dwattr $C$DW$72, DW_AT_accessibility(DW_ACCESS_public)
    1222                            .dwattr $C$DW$72, DW_AT_decl_file("C:/ti/ccsv6/tools/compiler/ti-cgt-arm_5.2.5/include/stdarg.
    1223                            .dwattr $C$DW$72, DW_AT_decl_line(0x36)
    1224                            .dwattr $C$DW$72, DW_AT_decl_column(0x0c)
    1225                            .dwendtag $C$DW$T$25
    1226                    
    1227                            .dwattr $C$DW$T$25, DW_AT_decl_file("C:/ti/ccsv6/tools/compiler/ti-cgt-arm_5.2.5/include/stdar
    1228                            .dwattr $C$DW$T$25, DW_AT_decl_line(0x35)
    1229                            .dwattr $C$DW$T$25, DW_AT_decl_column(0x10)
    1230                    $C$DW$T$136     .dwtag  DW_TAG_typedef, DW_AT_name("va_list")
    1231                            .dwattr $C$DW$T$136, DW_AT_type(*$C$DW$T$25)
    1232                            .dwattr $C$DW$T$136, DW_AT_language(DW_LANG_C)
    1233                            .dwattr $C$DW$T$136, DW_AT_decl_file("C:/ti/ccsv6/tools/compiler/ti-cgt-arm_5.2.5/include/stda
    1234                            .dwattr $C$DW$T$136, DW_AT_decl_line(0x37)
    1235                            .dwattr $C$DW$T$136, DW_AT_decl_column(0x03)
    1236                    $C$DW$T$137     .dwtag  DW_TAG_typedef, DW_AT_name("_Va_list")
    1237                            .dwattr $C$DW$T$137, DW_AT_type(*$C$DW$T$136)
    1238                            .dwattr $C$DW$T$137, DW_AT_language(DW_LANG_C)
    1239                            .dwattr $C$DW$T$137, DW_AT_decl_file("C:/ti/ccsv6/tools/compiler/ti-cgt-arm_5.2.5/include/yval
    1240                            .dwattr $C$DW$T$137, DW_AT_decl_line(0x1f6)
    1241                            .dwattr $C$DW$T$137, DW_AT_decl_column(0x17)
    1242                    
    1243                    $C$DW$T$29      .dwtag  DW_TAG_structure_type
    1244                            .dwattr $C$DW$T$29, DW_AT_name("_dataPacket")
    1245                            .dwattr $C$DW$T$29, DW_AT_byte_size(0x20)
    1246                    $C$DW$73        .dwtag  DW_TAG_member
    1247                            .dwattr $C$DW$73, DW_AT_type(*$C$DW$T$27)
    1248                            .dwattr $C$DW$73, DW_AT_name("name")
    1249                            .dwattr $C$DW$73, DW_AT_TI_symbol_name("name")
    1250                            .dwattr $C$DW$73, DW_AT_data_member_location[DW_OP_plus_uconst 0x0]
    1251                            .dwattr $C$DW$73, DW_AT_accessibility(DW_ACCESS_public)
    1252                            .dwattr $C$DW$73, DW_AT_decl_file("../Tasks/Task_PID.c")
    1253                            .dwattr $C$DW$73, DW_AT_decl_line(0x1a)
    1254                            .dwattr $C$DW$73, DW_AT_decl_column(0x07)
    1255                    $C$DW$74        .dwtag  DW_TAG_member
    1256                            .dwattr $C$DW$74, DW_AT_type(*$C$DW$T$28)
    1257                            .dwattr $C$DW$74, DW_AT_name("id")
    1258                            .dwattr $C$DW$74, DW_AT_TI_symbol_name("id")
    1259                            .dwattr $C$DW$74, DW_AT_data_member_location[DW_OP_plus_uconst 0x14]
    1260                            .dwattr $C$DW$74, DW_AT_accessibility(DW_ACCESS_public)
    1261                            .dwattr $C$DW$74, DW_AT_decl_file("../Tasks/Task_PID.c")
    1262                            .dwattr $C$DW$74, DW_AT_decl_line(0x1b)
    1263                            .dwattr $C$DW$74, DW_AT_decl_column(0x0b)
    1264                    $C$DW$75        .dwtag  DW_TAG_member
    1265                            .dwattr $C$DW$75, DW_AT_type(*$C$DW$T$28)
TI ARM Assembler PC v5.2.5 Mon Mar 28 00:41:02 2016

Tools Copyright (c) 1996-2015 Texas Instruments Incorporated
Task_PID.asm                                                         PAGE   24

    1266                            .dwattr $C$DW$75, DW_AT_name("time")
    1267                            .dwattr $C$DW$75, DW_AT_TI_symbol_name("time")
    1268                            .dwattr $C$DW$75, DW_AT_data_member_location[DW_OP_plus_uconst 0x18]
    1269                            .dwattr $C$DW$75, DW_AT_accessibility(DW_ACCESS_public)
    1270                            .dwattr $C$DW$75, DW_AT_decl_file("../Tasks/Task_PID.c")
    1271                            .dwattr $C$DW$75, DW_AT_decl_line(0x1c)
    1272                            .dwattr $C$DW$75, DW_AT_decl_column(0x0b)
    1273                    $C$DW$76        .dwtag  DW_TAG_member
    1274                            .dwattr $C$DW$76, DW_AT_type(*$C$DW$T$16)
    1275                            .dwattr $C$DW$76, DW_AT_name("val1")
    1276                            .dwattr $C$DW$76, DW_AT_TI_symbol_name("val1")
    1277                            .dwattr $C$DW$76, DW_AT_data_member_location[DW_OP_plus_uconst 0x1c]
    1278                            .dwattr $C$DW$76, DW_AT_accessibility(DW_ACCESS_public)
    1279                            .dwattr $C$DW$76, DW_AT_decl_file("../Tasks/Task_PID.c")
    1280                            .dwattr $C$DW$76, DW_AT_decl_line(0x1d)
    1281                            .dwattr $C$DW$76, DW_AT_decl_column(0x0b)
    1282                            .dwendtag $C$DW$T$29
    1283                    
    1284                            .dwattr $C$DW$T$29, DW_AT_decl_file("../Tasks/Task_PID.c")
    1285                            .dwattr $C$DW$T$29, DW_AT_decl_line(0x19)
    1286                            .dwattr $C$DW$T$29, DW_AT_decl_column(0x10)
    1287                    $C$DW$T$138     .dwtag  DW_TAG_typedef, DW_AT_name("dataPacket")
    1288                            .dwattr $C$DW$T$138, DW_AT_type(*$C$DW$T$29)
    1289                            .dwattr $C$DW$T$138, DW_AT_language(DW_LANG_C)
    1290                            .dwattr $C$DW$T$138, DW_AT_decl_file("../Tasks/Task_PID.c")
    1291                            .dwattr $C$DW$T$138, DW_AT_decl_line(0x1e)
    1292                            .dwattr $C$DW$T$138, DW_AT_decl_column(0x03)
    1293                    $C$DW$T$140     .dwtag  DW_TAG_const_type
    1294                            .dwattr $C$DW$T$140, DW_AT_type(*$C$DW$T$138)
    1295                    
    1296                    $C$DW$T$34      .dwtag  DW_TAG_structure_type
    1297                            .dwattr $C$DW$T$34, DW_AT_name("xLIST")
    1298                            .dwattr $C$DW$T$34, DW_AT_byte_size(0x14)
    1299                    $C$DW$77        .dwtag  DW_TAG_member
    1300                            .dwattr $C$DW$77, DW_AT_type(*$C$DW$T$30)
    1301                            .dwattr $C$DW$77, DW_AT_name("uxNumberOfItems")
    1302                            .dwattr $C$DW$77, DW_AT_TI_symbol_name("uxNumberOfItems")
    1303                            .dwattr $C$DW$77, DW_AT_data_member_location[DW_OP_plus_uconst 0x0]
    1304                            .dwattr $C$DW$77, DW_AT_accessibility(DW_ACCESS_public)
    1305                            .dwattr $C$DW$77, DW_AT_decl_file("C:\Users\DreyCow\workspace\TI_ARM_Tiva_Projects_EECS_690_Sp
    1306                            .dwattr $C$DW$77, DW_AT_decl_line(0xd0)
    1307                            .dwattr $C$DW$77, DW_AT_decl_column(0x22)
    1308                    $C$DW$78        .dwtag  DW_TAG_member
    1309                            .dwattr $C$DW$78, DW_AT_type(*$C$DW$T$32)
    1310                            .dwattr $C$DW$78, DW_AT_name("pxIndex")
    1311                            .dwattr $C$DW$78, DW_AT_TI_symbol_name("pxIndex")
    1312                            .dwattr $C$DW$78, DW_AT_data_member_location[DW_OP_plus_uconst 0x4]
    1313                            .dwattr $C$DW$78, DW_AT_accessibility(DW_ACCESS_public)
    1314                            .dwattr $C$DW$78, DW_AT_decl_file("C:\Users\DreyCow\workspace\TI_ARM_Tiva_Projects_EECS_690_Sp
    1315                            .dwattr $C$DW$78, DW_AT_decl_line(0xd1)
    1316                            .dwattr $C$DW$78, DW_AT_decl_column(0x23)
    1317                    $C$DW$79        .dwtag  DW_TAG_member
    1318                            .dwattr $C$DW$79, DW_AT_type(*$C$DW$T$33)
    1319                            .dwattr $C$DW$79, DW_AT_name("xListEnd")
    1320                            .dwattr $C$DW$79, DW_AT_TI_symbol_name("xListEnd")
TI ARM Assembler PC v5.2.5 Mon Mar 28 00:41:02 2016

Tools Copyright (c) 1996-2015 Texas Instruments Incorporated
Task_PID.asm                                                         PAGE   25

    1321                            .dwattr $C$DW$79, DW_AT_data_member_location[DW_OP_plus_uconst 0x8]
    1322                            .dwattr $C$DW$79, DW_AT_accessibility(DW_ACCESS_public)
    1323                            .dwattr $C$DW$79, DW_AT_decl_file("C:\Users\DreyCow\workspace\TI_ARM_Tiva_Projects_EECS_690_Sp
    1324                            .dwattr $C$DW$79, DW_AT_decl_line(0xd2)
    1325                            .dwattr $C$DW$79, DW_AT_decl_column(0x11)
    1326                            .dwendtag $C$DW$T$34
    1327                    
    1328                            .dwattr $C$DW$T$34, DW_AT_decl_file("C:\Users\DreyCow\workspace\TI_ARM_Tiva_Projects_EECS_690_
    1329                            .dwattr $C$DW$T$34, DW_AT_decl_line(0xcd)
    1330                            .dwattr $C$DW$T$34, DW_AT_decl_column(0x10)
    1331                    $C$DW$T$141     .dwtag  DW_TAG_typedef, DW_AT_name("List_t")
    1332                            .dwattr $C$DW$T$141, DW_AT_type(*$C$DW$T$34)
    1333                            .dwattr $C$DW$T$141, DW_AT_language(DW_LANG_C)
    1334                            .dwattr $C$DW$T$141, DW_AT_decl_file("C:\Users\DreyCow\workspace\TI_ARM_Tiva_Projects_EECS_690
    1335                            .dwattr $C$DW$T$141, DW_AT_decl_line(0xd4)
    1336                            .dwattr $C$DW$T$141, DW_AT_decl_column(0x03)
    1337                    
    1338                    $C$DW$T$37      .dwtag  DW_TAG_structure_type
    1339                            .dwattr $C$DW$T$37, DW_AT_name("xLIST_ITEM")
    1340                            .dwattr $C$DW$T$37, DW_AT_byte_size(0x14)
    1341                    $C$DW$80        .dwtag  DW_TAG_member
    1342                            .dwattr $C$DW$80, DW_AT_type(*$C$DW$T$35)
    1343                            .dwattr $C$DW$80, DW_AT_name("xItemValue")
    1344                            .dwattr $C$DW$80, DW_AT_TI_symbol_name("xItemValue")
    1345                            .dwattr $C$DW$80, DW_AT_data_member_location[DW_OP_plus_uconst 0x0]
    1346                            .dwattr $C$DW$80, DW_AT_accessibility(DW_ACCESS_public)
    1347                            .dwattr $C$DW$80, DW_AT_decl_file("C:\Users\DreyCow\workspace\TI_ARM_Tiva_Projects_EECS_690_Sp
    1348                            .dwattr $C$DW$80, DW_AT_decl_line(0xb8)
    1349                            .dwattr $C$DW$80, DW_AT_decl_column(0x21)
    1350                    $C$DW$81        .dwtag  DW_TAG_member
    1351                            .dwattr $C$DW$81, DW_AT_type(*$C$DW$T$36)
    1352                            .dwattr $C$DW$81, DW_AT_name("pxNext")
    1353                            .dwattr $C$DW$81, DW_AT_TI_symbol_name("pxNext")
    1354                            .dwattr $C$DW$81, DW_AT_data_member_location[DW_OP_plus_uconst 0x4]
    1355                            .dwattr $C$DW$81, DW_AT_accessibility(DW_ACCESS_public)
    1356                            .dwattr $C$DW$81, DW_AT_decl_file("C:\Users\DreyCow\workspace\TI_ARM_Tiva_Projects_EECS_690_Sp
    1357                            .dwattr $C$DW$81, DW_AT_decl_line(0xb9)
    1358                            .dwattr $C$DW$81, DW_AT_decl_column(0x2a)
    1359                    $C$DW$82        .dwtag  DW_TAG_member
    1360                            .dwattr $C$DW$82, DW_AT_type(*$C$DW$T$36)
    1361                            .dwattr $C$DW$82, DW_AT_name("pxPrevious")
    1362                            .dwattr $C$DW$82, DW_AT_TI_symbol_name("pxPrevious")
    1363                            .dwattr $C$DW$82, DW_AT_data_member_location[DW_OP_plus_uconst 0x8]
    1364                            .dwattr $C$DW$82, DW_AT_accessibility(DW_ACCESS_public)
    1365                            .dwattr $C$DW$82, DW_AT_decl_file("C:\Users\DreyCow\workspace\TI_ARM_Tiva_Projects_EECS_690_Sp
    1366                            .dwattr $C$DW$82, DW_AT_decl_line(0xba)
    1367                            .dwattr $C$DW$82, DW_AT_decl_column(0x2a)
    1368                    $C$DW$83        .dwtag  DW_TAG_member
    1369                            .dwattr $C$DW$83, DW_AT_type(*$C$DW$T$3)
    1370                            .dwattr $C$DW$83, DW_AT_name("pvOwner")
    1371                            .dwattr $C$DW$83, DW_AT_TI_symbol_name("pvOwner")
    1372                            .dwattr $C$DW$83, DW_AT_data_member_location[DW_OP_plus_uconst 0xc]
    1373                            .dwattr $C$DW$83, DW_AT_accessibility(DW_ACCESS_public)
    1374                            .dwattr $C$DW$83, DW_AT_decl_file("C:\Users\DreyCow\workspace\TI_ARM_Tiva_Projects_EECS_690_Sp
    1375                            .dwattr $C$DW$83, DW_AT_decl_line(0xbb)
TI ARM Assembler PC v5.2.5 Mon Mar 28 00:41:02 2016

Tools Copyright (c) 1996-2015 Texas Instruments Incorporated
Task_PID.asm                                                         PAGE   26

    1376                            .dwattr $C$DW$83, DW_AT_decl_column(0x09)
    1377                    $C$DW$84        .dwtag  DW_TAG_member
    1378                            .dwattr $C$DW$84, DW_AT_type(*$C$DW$T$3)
    1379                            .dwattr $C$DW$84, DW_AT_name("pvContainer")
    1380                            .dwattr $C$DW$84, DW_AT_TI_symbol_name("pvContainer")
    1381                            .dwattr $C$DW$84, DW_AT_data_member_location[DW_OP_plus_uconst 0x10]
    1382                            .dwattr $C$DW$84, DW_AT_accessibility(DW_ACCESS_public)
    1383                            .dwattr $C$DW$84, DW_AT_decl_file("C:\Users\DreyCow\workspace\TI_ARM_Tiva_Projects_EECS_690_Sp
    1384                            .dwattr $C$DW$84, DW_AT_decl_line(0xbc)
    1385                            .dwattr $C$DW$84, DW_AT_decl_column(0x1d)
    1386                            .dwendtag $C$DW$T$37
    1387                    
    1388                            .dwattr $C$DW$T$37, DW_AT_decl_file("C:\Users\DreyCow\workspace\TI_ARM_Tiva_Projects_EECS_690_
    1389                            .dwattr $C$DW$T$37, DW_AT_decl_line(0xb5)
    1390                            .dwattr $C$DW$T$37, DW_AT_decl_column(0x08)
    1391                    $C$DW$T$31      .dwtag  DW_TAG_typedef, DW_AT_name("ListItem_t")
    1392                            .dwattr $C$DW$T$31, DW_AT_type(*$C$DW$T$37)
    1393                            .dwattr $C$DW$T$31, DW_AT_language(DW_LANG_C)
    1394                            .dwattr $C$DW$T$31, DW_AT_decl_file("C:\Users\DreyCow\workspace\TI_ARM_Tiva_Projects_EECS_690_
    1395                            .dwattr $C$DW$T$31, DW_AT_decl_line(0xbf)
    1396                            .dwattr $C$DW$T$31, DW_AT_decl_column(0x1b)
    1397                    $C$DW$T$32      .dwtag  DW_TAG_pointer_type
    1398                            .dwattr $C$DW$T$32, DW_AT_type(*$C$DW$T$31)
    1399                            .dwattr $C$DW$T$32, DW_AT_address_class(0x20)
    1400                    $C$DW$T$36      .dwtag  DW_TAG_pointer_type
    1401                            .dwattr $C$DW$T$36, DW_AT_type(*$C$DW$T$37)
    1402                            .dwattr $C$DW$T$36, DW_AT_address_class(0x20)
    1403                    
    1404                    $C$DW$T$38      .dwtag  DW_TAG_structure_type
    1405                            .dwattr $C$DW$T$38, DW_AT_name("xMEMORY_REGION")
    1406                            .dwattr $C$DW$T$38, DW_AT_byte_size(0x0c)
    1407                    $C$DW$85        .dwtag  DW_TAG_member
    1408                            .dwattr $C$DW$85, DW_AT_type(*$C$DW$T$3)
    1409                            .dwattr $C$DW$85, DW_AT_name("pvBaseAddress")
    1410                            .dwattr $C$DW$85, DW_AT_TI_symbol_name("pvBaseAddress")
    1411                            .dwattr $C$DW$85, DW_AT_data_member_location[DW_OP_plus_uconst 0x0]
    1412                            .dwattr $C$DW$85, DW_AT_accessibility(DW_ACCESS_public)
    1413                            .dwattr $C$DW$85, DW_AT_decl_file("C:/Users/DreyCow/workspace/TI_ARM_Tiva_Projects_EECS_690_Sp
    1414                            .dwattr $C$DW$85, DW_AT_decl_line(0x91)
    1415                            .dwattr $C$DW$85, DW_AT_decl_column(0x08)
    1416                    $C$DW$86        .dwtag  DW_TAG_member
    1417                            .dwattr $C$DW$86, DW_AT_type(*$C$DW$T$28)
    1418                            .dwattr $C$DW$86, DW_AT_name("ulLengthInBytes")
    1419                            .dwattr $C$DW$86, DW_AT_TI_symbol_name("ulLengthInBytes")
    1420                            .dwattr $C$DW$86, DW_AT_data_member_location[DW_OP_plus_uconst 0x4]
    1421                            .dwattr $C$DW$86, DW_AT_accessibility(DW_ACCESS_public)
    1422                            .dwattr $C$DW$86, DW_AT_decl_file("C:/Users/DreyCow/workspace/TI_ARM_Tiva_Projects_EECS_690_Sp
    1423                            .dwattr $C$DW$86, DW_AT_decl_line(0x92)
    1424                            .dwattr $C$DW$86, DW_AT_decl_column(0x0b)
    1425                    $C$DW$87        .dwtag  DW_TAG_member
    1426                            .dwattr $C$DW$87, DW_AT_type(*$C$DW$T$28)
    1427                            .dwattr $C$DW$87, DW_AT_name("ulParameters")
    1428                            .dwattr $C$DW$87, DW_AT_TI_symbol_name("ulParameters")
    1429                            .dwattr $C$DW$87, DW_AT_data_member_location[DW_OP_plus_uconst 0x8]
    1430                            .dwattr $C$DW$87, DW_AT_accessibility(DW_ACCESS_public)
TI ARM Assembler PC v5.2.5 Mon Mar 28 00:41:02 2016

Tools Copyright (c) 1996-2015 Texas Instruments Incorporated
Task_PID.asm                                                         PAGE   27

    1431                            .dwattr $C$DW$87, DW_AT_decl_file("C:/Users/DreyCow/workspace/TI_ARM_Tiva_Projects_EECS_690_Sp
    1432                            .dwattr $C$DW$87, DW_AT_decl_line(0x93)
    1433                            .dwattr $C$DW$87, DW_AT_decl_column(0x0b)
    1434                            .dwendtag $C$DW$T$38
    1435                    
    1436                            .dwattr $C$DW$T$38, DW_AT_decl_file("C:/Users/DreyCow/workspace/TI_ARM_Tiva_Projects_EECS_690_
    1437                            .dwattr $C$DW$T$38, DW_AT_decl_line(0x8f)
    1438                            .dwattr $C$DW$T$38, DW_AT_decl_column(0x10)
    1439                    $C$DW$T$49      .dwtag  DW_TAG_typedef, DW_AT_name("MemoryRegion_t")
    1440                            .dwattr $C$DW$T$49, DW_AT_type(*$C$DW$T$38)
    1441                            .dwattr $C$DW$T$49, DW_AT_language(DW_LANG_C)
    1442                            .dwattr $C$DW$T$49, DW_AT_decl_file("C:/Users/DreyCow/workspace/TI_ARM_Tiva_Projects_EECS_690_
    1443                            .dwattr $C$DW$T$49, DW_AT_decl_line(0x94)
    1444                            .dwattr $C$DW$T$49, DW_AT_decl_column(0x03)
    1445                    
    1446                    $C$DW$T$50      .dwtag  DW_TAG_array_type
    1447                            .dwattr $C$DW$T$50, DW_AT_type(*$C$DW$T$49)
    1448                            .dwattr $C$DW$T$50, DW_AT_language(DW_LANG_C)
    1449                            .dwattr $C$DW$T$50, DW_AT_byte_size(0x0c)
    1450                    $C$DW$88        .dwtag  DW_TAG_subrange_type
    1451                            .dwattr $C$DW$88, DW_AT_upper_bound(0x00)
    1452                            .dwendtag $C$DW$T$50
    1453                    
    1454                    
    1455                    $C$DW$T$39      .dwtag  DW_TAG_structure_type
    1456                            .dwattr $C$DW$T$39, DW_AT_name("xMINI_LIST_ITEM")
    1457                            .dwattr $C$DW$T$39, DW_AT_byte_size(0x0c)
    1458                    $C$DW$89        .dwtag  DW_TAG_member
    1459                            .dwattr $C$DW$89, DW_AT_type(*$C$DW$T$35)
    1460                            .dwattr $C$DW$89, DW_AT_name("xItemValue")
    1461                            .dwattr $C$DW$89, DW_AT_TI_symbol_name("xItemValue")
    1462                            .dwattr $C$DW$89, DW_AT_data_member_location[DW_OP_plus_uconst 0x0]
    1463                            .dwattr $C$DW$89, DW_AT_accessibility(DW_ACCESS_public)
    1464                            .dwattr $C$DW$89, DW_AT_decl_file("C:\Users\DreyCow\workspace\TI_ARM_Tiva_Projects_EECS_690_Sp
    1465                            .dwattr $C$DW$89, DW_AT_decl_line(0xc4)
    1466                            .dwattr $C$DW$89, DW_AT_decl_column(0x21)
    1467                    $C$DW$90        .dwtag  DW_TAG_member
    1468                            .dwattr $C$DW$90, DW_AT_type(*$C$DW$T$36)
    1469                            .dwattr $C$DW$90, DW_AT_name("pxNext")
    1470                            .dwattr $C$DW$90, DW_AT_TI_symbol_name("pxNext")
    1471                            .dwattr $C$DW$90, DW_AT_data_member_location[DW_OP_plus_uconst 0x4]
    1472                            .dwattr $C$DW$90, DW_AT_accessibility(DW_ACCESS_public)
    1473                            .dwattr $C$DW$90, DW_AT_decl_file("C:\Users\DreyCow\workspace\TI_ARM_Tiva_Projects_EECS_690_Sp
    1474                            .dwattr $C$DW$90, DW_AT_decl_line(0xc5)
    1475                            .dwattr $C$DW$90, DW_AT_decl_column(0x2a)
    1476                    $C$DW$91        .dwtag  DW_TAG_member
    1477                            .dwattr $C$DW$91, DW_AT_type(*$C$DW$T$36)
    1478                            .dwattr $C$DW$91, DW_AT_name("pxPrevious")
    1479                            .dwattr $C$DW$91, DW_AT_TI_symbol_name("pxPrevious")
    1480                            .dwattr $C$DW$91, DW_AT_data_member_location[DW_OP_plus_uconst 0x8]
    1481                            .dwattr $C$DW$91, DW_AT_accessibility(DW_ACCESS_public)
    1482                            .dwattr $C$DW$91, DW_AT_decl_file("C:\Users\DreyCow\workspace\TI_ARM_Tiva_Projects_EECS_690_Sp
    1483                            .dwattr $C$DW$91, DW_AT_decl_line(0xc6)
    1484                            .dwattr $C$DW$91, DW_AT_decl_column(0x2a)
    1485                            .dwendtag $C$DW$T$39
TI ARM Assembler PC v5.2.5 Mon Mar 28 00:41:02 2016

Tools Copyright (c) 1996-2015 Texas Instruments Incorporated
Task_PID.asm                                                         PAGE   28

    1486                    
    1487                            .dwattr $C$DW$T$39, DW_AT_decl_file("C:\Users\DreyCow\workspace\TI_ARM_Tiva_Projects_EECS_690_
    1488                            .dwattr $C$DW$T$39, DW_AT_decl_line(0xc1)
    1489                            .dwattr $C$DW$T$39, DW_AT_decl_column(0x08)
    1490                    $C$DW$T$33      .dwtag  DW_TAG_typedef, DW_AT_name("MiniListItem_t")
    1491                            .dwattr $C$DW$T$33, DW_AT_type(*$C$DW$T$39)
    1492                            .dwattr $C$DW$T$33, DW_AT_language(DW_LANG_C)
    1493                            .dwattr $C$DW$T$33, DW_AT_decl_file("C:\Users\DreyCow\workspace\TI_ARM_Tiva_Projects_EECS_690_
    1494                            .dwattr $C$DW$T$33, DW_AT_decl_line(0xc8)
    1495                            .dwattr $C$DW$T$33, DW_AT_decl_column(0x20)
    1496                    
    1497                    $C$DW$T$51      .dwtag  DW_TAG_structure_type
    1498                            .dwattr $C$DW$T$51, DW_AT_name("xTASK_PARAMETERS")
    1499                            .dwattr $C$DW$T$51, DW_AT_byte_size(0x24)
    1500                    $C$DW$92        .dwtag  DW_TAG_member
    1501                            .dwattr $C$DW$92, DW_AT_type(*$C$DW$T$42)
    1502                            .dwattr $C$DW$92, DW_AT_name("pvTaskCode")
    1503                            .dwattr $C$DW$92, DW_AT_TI_symbol_name("pvTaskCode")
    1504                            .dwattr $C$DW$92, DW_AT_data_member_location[DW_OP_plus_uconst 0x0]
    1505                            .dwattr $C$DW$92, DW_AT_accessibility(DW_ACCESS_public)
    1506                            .dwattr $C$DW$92, DW_AT_decl_file("C:/Users/DreyCow/workspace/TI_ARM_Tiva_Projects_EECS_690_Sp
    1507                            .dwattr $C$DW$92, DW_AT_decl_line(0x9b)
    1508                            .dwattr $C$DW$92, DW_AT_decl_column(0x11)
    1509                    $C$DW$93        .dwtag  DW_TAG_member
    1510                            .dwattr $C$DW$93, DW_AT_type(*$C$DW$T$45)
    1511                            .dwattr $C$DW$93, DW_AT_name("pcName")
    1512                            .dwattr $C$DW$93, DW_AT_TI_symbol_name("pcName")
    1513                            .dwattr $C$DW$93, DW_AT_data_member_location[DW_OP_plus_uconst 0x4]
    1514                            .dwattr $C$DW$93, DW_AT_accessibility(DW_ACCESS_public)
    1515                            .dwattr $C$DW$93, DW_AT_decl_file("C:/Users/DreyCow/workspace/TI_ARM_Tiva_Projects_EECS_690_Sp
    1516                            .dwattr $C$DW$93, DW_AT_decl_line(0x9c)
    1517                            .dwattr $C$DW$93, DW_AT_decl_column(0x15)
    1518                    $C$DW$94        .dwtag  DW_TAG_member
    1519                            .dwattr $C$DW$94, DW_AT_type(*$C$DW$T$46)
    1520                            .dwattr $C$DW$94, DW_AT_name("usStackDepth")
    1521                            .dwattr $C$DW$94, DW_AT_TI_symbol_name("usStackDepth")
    1522                            .dwattr $C$DW$94, DW_AT_data_member_location[DW_OP_plus_uconst 0x8]
    1523                            .dwattr $C$DW$94, DW_AT_accessibility(DW_ACCESS_public)
    1524                            .dwattr $C$DW$94, DW_AT_decl_file("C:/Users/DreyCow/workspace/TI_ARM_Tiva_Projects_EECS_690_Sp
    1525                            .dwattr $C$DW$94, DW_AT_decl_line(0x9d)
    1526                            .dwattr $C$DW$94, DW_AT_decl_column(0x0b)
    1527                    $C$DW$95        .dwtag  DW_TAG_member
    1528                            .dwattr $C$DW$95, DW_AT_type(*$C$DW$T$3)
    1529                            .dwattr $C$DW$95, DW_AT_name("pvParameters")
    1530                            .dwattr $C$DW$95, DW_AT_TI_symbol_name("pvParameters")
    1531                            .dwattr $C$DW$95, DW_AT_data_member_location[DW_OP_plus_uconst 0xc]
    1532                            .dwattr $C$DW$95, DW_AT_accessibility(DW_ACCESS_public)
    1533                            .dwattr $C$DW$95, DW_AT_decl_file("C:/Users/DreyCow/workspace/TI_ARM_Tiva_Projects_EECS_690_Sp
    1534                            .dwattr $C$DW$95, DW_AT_decl_line(0x9e)
    1535                            .dwattr $C$DW$95, DW_AT_decl_column(0x08)
    1536                    $C$DW$96        .dwtag  DW_TAG_member
    1537                            .dwattr $C$DW$96, DW_AT_type(*$C$DW$T$30)
    1538                            .dwattr $C$DW$96, DW_AT_name("uxPriority")
    1539                            .dwattr $C$DW$96, DW_AT_TI_symbol_name("uxPriority")
    1540                            .dwattr $C$DW$96, DW_AT_data_member_location[DW_OP_plus_uconst 0x10]
TI ARM Assembler PC v5.2.5 Mon Mar 28 00:41:02 2016

Tools Copyright (c) 1996-2015 Texas Instruments Incorporated
Task_PID.asm                                                         PAGE   29

    1541                            .dwattr $C$DW$96, DW_AT_accessibility(DW_ACCESS_public)
    1542                            .dwattr $C$DW$96, DW_AT_decl_file("C:/Users/DreyCow/workspace/TI_ARM_Tiva_Projects_EECS_690_Sp
    1543                            .dwattr $C$DW$96, DW_AT_decl_line(0x9f)
    1544                            .dwattr $C$DW$96, DW_AT_decl_column(0x0e)
    1545                    $C$DW$97        .dwtag  DW_TAG_member
    1546                            .dwattr $C$DW$97, DW_AT_type(*$C$DW$T$48)
    1547                            .dwattr $C$DW$97, DW_AT_name("puxStackBuffer")
    1548                            .dwattr $C$DW$97, DW_AT_TI_symbol_name("puxStackBuffer")
    1549                            .dwattr $C$DW$97, DW_AT_data_member_location[DW_OP_plus_uconst 0x14]
    1550                            .dwattr $C$DW$97, DW_AT_accessibility(DW_ACCESS_public)
    1551                            .dwattr $C$DW$97, DW_AT_decl_file("C:/Users/DreyCow/workspace/TI_ARM_Tiva_Projects_EECS_690_Sp
    1552                            .dwattr $C$DW$97, DW_AT_decl_line(0xa0)
    1553                            .dwattr $C$DW$97, DW_AT_decl_column(0x0f)
    1554                    $C$DW$98        .dwtag  DW_TAG_member
    1555                            .dwattr $C$DW$98, DW_AT_type(*$C$DW$T$50)
    1556                            .dwattr $C$DW$98, DW_AT_name("xRegions")
    1557                            .dwattr $C$DW$98, DW_AT_TI_symbol_name("xRegions")
    1558                            .dwattr $C$DW$98, DW_AT_data_member_location[DW_OP_plus_uconst 0x18]
    1559                            .dwattr $C$DW$98, DW_AT_accessibility(DW_ACCESS_public)
    1560                            .dwattr $C$DW$98, DW_AT_decl_file("C:/Users/DreyCow/workspace/TI_ARM_Tiva_Projects_EECS_690_Sp
    1561                            .dwattr $C$DW$98, DW_AT_decl_line(0xa1)
    1562                            .dwattr $C$DW$98, DW_AT_decl_column(0x11)
    1563                            .dwendtag $C$DW$T$51
    1564                    
    1565                            .dwattr $C$DW$T$51, DW_AT_decl_file("C:/Users/DreyCow/workspace/TI_ARM_Tiva_Projects_EECS_690_
    1566                            .dwattr $C$DW$T$51, DW_AT_decl_line(0x99)
    1567                            .dwattr $C$DW$T$51, DW_AT_decl_column(0x10)
    1568                    $C$DW$T$142     .dwtag  DW_TAG_typedef, DW_AT_name("TaskParameters_t")
    1569                            .dwattr $C$DW$T$142, DW_AT_type(*$C$DW$T$51)
    1570                            .dwattr $C$DW$T$142, DW_AT_language(DW_LANG_C)
    1571                            .dwattr $C$DW$T$142, DW_AT_decl_file("C:/Users/DreyCow/workspace/TI_ARM_Tiva_Projects_EECS_690
    1572                            .dwattr $C$DW$T$142, DW_AT_decl_line(0xa2)
    1573                            .dwattr $C$DW$T$142, DW_AT_decl_column(0x03)
    1574                    
    1575                    $C$DW$T$55      .dwtag  DW_TAG_structure_type
    1576                            .dwattr $C$DW$T$55, DW_AT_name("xTASK_STATUS")
    1577                            .dwattr $C$DW$T$55, DW_AT_byte_size(0x20)
    1578                    $C$DW$99        .dwtag  DW_TAG_member
    1579                            .dwattr $C$DW$99, DW_AT_type(*$C$DW$T$52)
    1580                            .dwattr $C$DW$99, DW_AT_name("xHandle")
    1581                            .dwattr $C$DW$99, DW_AT_TI_symbol_name("xHandle")
    1582                            .dwattr $C$DW$99, DW_AT_data_member_location[DW_OP_plus_uconst 0x0]
    1583                            .dwattr $C$DW$99, DW_AT_accessibility(DW_ACCESS_public)
    1584                            .dwattr $C$DW$99, DW_AT_decl_file("C:/Users/DreyCow/workspace/TI_ARM_Tiva_Projects_EECS_690_Sp
    1585                            .dwattr $C$DW$99, DW_AT_decl_line(0xa8)
    1586                            .dwattr $C$DW$99, DW_AT_decl_column(0x0f)
    1587                    $C$DW$100       .dwtag  DW_TAG_member
    1588                            .dwattr $C$DW$100, DW_AT_type(*$C$DW$T$44)
    1589                            .dwattr $C$DW$100, DW_AT_name("pcTaskName")
    1590                            .dwattr $C$DW$100, DW_AT_TI_symbol_name("pcTaskName")
    1591                            .dwattr $C$DW$100, DW_AT_data_member_location[DW_OP_plus_uconst 0x4]
    1592                            .dwattr $C$DW$100, DW_AT_accessibility(DW_ACCESS_public)
    1593                            .dwattr $C$DW$100, DW_AT_decl_file("C:/Users/DreyCow/workspace/TI_ARM_Tiva_Projects_EECS_690_S
    1594                            .dwattr $C$DW$100, DW_AT_decl_line(0xa9)
    1595                            .dwattr $C$DW$100, DW_AT_decl_column(0x0e)
TI ARM Assembler PC v5.2.5 Mon Mar 28 00:41:02 2016

Tools Copyright (c) 1996-2015 Texas Instruments Incorporated
Task_PID.asm                                                         PAGE   30

    1596                    $C$DW$101       .dwtag  DW_TAG_member
    1597                            .dwattr $C$DW$101, DW_AT_type(*$C$DW$T$30)
    1598                            .dwattr $C$DW$101, DW_AT_name("xTaskNumber")
    1599                            .dwattr $C$DW$101, DW_AT_TI_symbol_name("xTaskNumber")
    1600                            .dwattr $C$DW$101, DW_AT_data_member_location[DW_OP_plus_uconst 0x8]
    1601                            .dwattr $C$DW$101, DW_AT_accessibility(DW_ACCESS_public)
    1602                            .dwattr $C$DW$101, DW_AT_decl_file("C:/Users/DreyCow/workspace/TI_ARM_Tiva_Projects_EECS_690_S
    1603                            .dwattr $C$DW$101, DW_AT_decl_line(0xaa)
    1604                            .dwattr $C$DW$101, DW_AT_decl_column(0x0e)
    1605                    $C$DW$102       .dwtag  DW_TAG_member
    1606                            .dwattr $C$DW$102, DW_AT_type(*$C$DW$T$54)
    1607                            .dwattr $C$DW$102, DW_AT_name("eCurrentState")
    1608                            .dwattr $C$DW$102, DW_AT_TI_symbol_name("eCurrentState")
    1609                            .dwattr $C$DW$102, DW_AT_data_member_location[DW_OP_plus_uconst 0xc]
    1610                            .dwattr $C$DW$102, DW_AT_accessibility(DW_ACCESS_public)
    1611                            .dwattr $C$DW$102, DW_AT_decl_file("C:/Users/DreyCow/workspace/TI_ARM_Tiva_Projects_EECS_690_S
    1612                            .dwattr $C$DW$102, DW_AT_decl_line(0xab)
    1613                            .dwattr $C$DW$102, DW_AT_decl_column(0x0d)
    1614                    $C$DW$103       .dwtag  DW_TAG_member
    1615                            .dwattr $C$DW$103, DW_AT_type(*$C$DW$T$30)
    1616                            .dwattr $C$DW$103, DW_AT_name("uxCurrentPriority")
    1617                            .dwattr $C$DW$103, DW_AT_TI_symbol_name("uxCurrentPriority")
    1618                            .dwattr $C$DW$103, DW_AT_data_member_location[DW_OP_plus_uconst 0x10]
    1619                            .dwattr $C$DW$103, DW_AT_accessibility(DW_ACCESS_public)
    1620                            .dwattr $C$DW$103, DW_AT_decl_file("C:/Users/DreyCow/workspace/TI_ARM_Tiva_Projects_EECS_690_S
    1621                            .dwattr $C$DW$103, DW_AT_decl_line(0xac)
    1622                            .dwattr $C$DW$103, DW_AT_decl_column(0x0e)
    1623                    $C$DW$104       .dwtag  DW_TAG_member
    1624                            .dwattr $C$DW$104, DW_AT_type(*$C$DW$T$30)
    1625                            .dwattr $C$DW$104, DW_AT_name("uxBasePriority")
    1626                            .dwattr $C$DW$104, DW_AT_TI_symbol_name("uxBasePriority")
    1627                            .dwattr $C$DW$104, DW_AT_data_member_location[DW_OP_plus_uconst 0x14]
    1628                            .dwattr $C$DW$104, DW_AT_accessibility(DW_ACCESS_public)
    1629                            .dwattr $C$DW$104, DW_AT_decl_file("C:/Users/DreyCow/workspace/TI_ARM_Tiva_Projects_EECS_690_S
    1630                            .dwattr $C$DW$104, DW_AT_decl_line(0xad)
    1631                            .dwattr $C$DW$104, DW_AT_decl_column(0x0e)
    1632                    $C$DW$105       .dwtag  DW_TAG_member
    1633                            .dwattr $C$DW$105, DW_AT_type(*$C$DW$T$28)
    1634                            .dwattr $C$DW$105, DW_AT_name("ulRunTimeCounter")
    1635                            .dwattr $C$DW$105, DW_AT_TI_symbol_name("ulRunTimeCounter")
    1636                            .dwattr $C$DW$105, DW_AT_data_member_location[DW_OP_plus_uconst 0x18]
    1637                            .dwattr $C$DW$105, DW_AT_accessibility(DW_ACCESS_public)
    1638                            .dwattr $C$DW$105, DW_AT_decl_file("C:/Users/DreyCow/workspace/TI_ARM_Tiva_Projects_EECS_690_S
    1639                            .dwattr $C$DW$105, DW_AT_decl_line(0xae)
    1640                            .dwattr $C$DW$105, DW_AT_decl_column(0x0b)
    1641                    $C$DW$106       .dwtag  DW_TAG_member
    1642                            .dwattr $C$DW$106, DW_AT_type(*$C$DW$T$46)
    1643                            .dwattr $C$DW$106, DW_AT_name("usStackHighWaterMark")
    1644                            .dwattr $C$DW$106, DW_AT_TI_symbol_name("usStackHighWaterMark")
    1645                            .dwattr $C$DW$106, DW_AT_data_member_location[DW_OP_plus_uconst 0x1c]
    1646                            .dwattr $C$DW$106, DW_AT_accessibility(DW_ACCESS_public)
    1647                            .dwattr $C$DW$106, DW_AT_decl_file("C:/Users/DreyCow/workspace/TI_ARM_Tiva_Projects_EECS_690_S
    1648                            .dwattr $C$DW$106, DW_AT_decl_line(0xaf)
    1649                            .dwattr $C$DW$106, DW_AT_decl_column(0x0b)
    1650                            .dwendtag $C$DW$T$55
TI ARM Assembler PC v5.2.5 Mon Mar 28 00:41:02 2016

Tools Copyright (c) 1996-2015 Texas Instruments Incorporated
Task_PID.asm                                                         PAGE   31

    1651                    
    1652                            .dwattr $C$DW$T$55, DW_AT_decl_file("C:/Users/DreyCow/workspace/TI_ARM_Tiva_Projects_EECS_690_
    1653                            .dwattr $C$DW$T$55, DW_AT_decl_line(0xa6)
    1654                            .dwattr $C$DW$T$55, DW_AT_decl_column(0x10)
    1655                    $C$DW$T$143     .dwtag  DW_TAG_typedef, DW_AT_name("TaskStatus_t")
    1656                            .dwattr $C$DW$T$143, DW_AT_type(*$C$DW$T$55)
    1657                            .dwattr $C$DW$T$143, DW_AT_language(DW_LANG_C)
    1658                            .dwattr $C$DW$T$143, DW_AT_decl_file("C:/Users/DreyCow/workspace/TI_ARM_Tiva_Projects_EECS_690
    1659                            .dwattr $C$DW$T$143, DW_AT_decl_line(0xb0)
    1660                            .dwattr $C$DW$T$143, DW_AT_decl_column(0x03)
    1661                    
    1662                    $C$DW$T$58      .dwtag  DW_TAG_structure_type
    1663                            .dwattr $C$DW$T$58, DW_AT_name("xTIME_OUT")
    1664                            .dwattr $C$DW$T$58, DW_AT_byte_size(0x08)
    1665                    $C$DW$107       .dwtag  DW_TAG_member
    1666                            .dwattr $C$DW$107, DW_AT_type(*$C$DW$T$57)
    1667                            .dwattr $C$DW$107, DW_AT_name("xOverflowCount")
    1668                            .dwattr $C$DW$107, DW_AT_TI_symbol_name("xOverflowCount")
    1669                            .dwattr $C$DW$107, DW_AT_data_member_location[DW_OP_plus_uconst 0x0]
    1670                            .dwattr $C$DW$107, DW_AT_accessibility(DW_ACCESS_public)
    1671                            .dwattr $C$DW$107, DW_AT_decl_file("C:/Users/DreyCow/workspace/TI_ARM_Tiva_Projects_EECS_690_S
    1672                            .dwattr $C$DW$107, DW_AT_decl_line(0x88)
    1673                            .dwattr $C$DW$107, DW_AT_decl_column(0x0d)
    1674                    $C$DW$108       .dwtag  DW_TAG_member
    1675                            .dwattr $C$DW$108, DW_AT_type(*$C$DW$T$35)
    1676                            .dwattr $C$DW$108, DW_AT_name("xTimeOnEntering")
    1677                            .dwattr $C$DW$108, DW_AT_TI_symbol_name("xTimeOnEntering")
    1678                            .dwattr $C$DW$108, DW_AT_data_member_location[DW_OP_plus_uconst 0x4]
    1679                            .dwattr $C$DW$108, DW_AT_accessibility(DW_ACCESS_public)
    1680                            .dwattr $C$DW$108, DW_AT_decl_file("C:/Users/DreyCow/workspace/TI_ARM_Tiva_Projects_EECS_690_S
    1681                            .dwattr $C$DW$108, DW_AT_decl_line(0x89)
    1682                            .dwattr $C$DW$108, DW_AT_decl_column(0x0d)
    1683                            .dwendtag $C$DW$T$58
    1684                    
    1685                            .dwattr $C$DW$T$58, DW_AT_decl_file("C:/Users/DreyCow/workspace/TI_ARM_Tiva_Projects_EECS_690_
    1686                            .dwattr $C$DW$T$58, DW_AT_decl_line(0x86)
    1687                            .dwattr $C$DW$T$58, DW_AT_decl_column(0x10)
    1688                    $C$DW$T$144     .dwtag  DW_TAG_typedef, DW_AT_name("TimeOut_t")
    1689                            .dwattr $C$DW$T$144, DW_AT_type(*$C$DW$T$58)
    1690                            .dwattr $C$DW$T$144, DW_AT_language(DW_LANG_C)
    1691                            .dwattr $C$DW$T$144, DW_AT_decl_file("C:/Users/DreyCow/workspace/TI_ARM_Tiva_Projects_EECS_690
    1692                            .dwattr $C$DW$T$144, DW_AT_decl_line(0x8a)
    1693                            .dwattr $C$DW$T$144, DW_AT_decl_column(0x03)
    1694                            .dwattr $C$DW$CU, DW_AT_language(DW_LANG_C)
    1695                    
    1696                    ;***************************************************************
    1697                    ;* DWARF CIE ENTRIES                                           *
    1698                    ;***************************************************************
    1699                    
    1700                    $C$DW$CIE       .dwcie 14
    1701                            .dwcfi  cfa_register, 13
    1702                            .dwcfi  cfa_offset, 0
    1703                            .dwcfi  undefined, 0
    1704                            .dwcfi  undefined, 1
    1705                            .dwcfi  undefined, 2
TI ARM Assembler PC v5.2.5 Mon Mar 28 00:41:02 2016

Tools Copyright (c) 1996-2015 Texas Instruments Incorporated
Task_PID.asm                                                         PAGE   32

    1706                            .dwcfi  undefined, 3
    1707                            .dwcfi  same_value, 4
    1708                            .dwcfi  same_value, 5
    1709                            .dwcfi  same_value, 6
    1710                            .dwcfi  same_value, 7
    1711                            .dwcfi  same_value, 8
    1712                            .dwcfi  same_value, 9
    1713                            .dwcfi  same_value, 10
    1714                            .dwcfi  same_value, 11
    1715                            .dwcfi  undefined, 12
    1716                            .dwcfi  undefined, 13
    1717                            .dwcfi  undefined, 14
    1718                            .dwcfi  undefined, 14
    1719                            .dwcfi  undefined, 7
    1720                            .dwcfi  undefined, 64
    1721                            .dwcfi  undefined, 65
    1722                            .dwcfi  undefined, 66
    1723                            .dwcfi  undefined, 67
    1724                            .dwcfi  undefined, 68
    1725                            .dwcfi  undefined, 69
    1726                            .dwcfi  undefined, 70
    1727                            .dwcfi  undefined, 71
    1728                            .dwcfi  undefined, 72
    1729                            .dwcfi  undefined, 73
    1730                            .dwcfi  undefined, 74
    1731                            .dwcfi  undefined, 75
    1732                            .dwcfi  undefined, 76
    1733                            .dwcfi  undefined, 77
    1734                            .dwcfi  undefined, 78
    1735                            .dwcfi  undefined, 79
    1736                            .dwcfi  same_value, 80
    1737                            .dwcfi  same_value, 81
    1738                            .dwcfi  same_value, 82
    1739                            .dwcfi  same_value, 83
    1740                            .dwcfi  same_value, 84
    1741                            .dwcfi  same_value, 85
    1742                            .dwcfi  same_value, 86
    1743                            .dwcfi  same_value, 87
    1744                            .dwcfi  same_value, 88
    1745                            .dwcfi  same_value, 89
    1746                            .dwcfi  same_value, 90
    1747                            .dwcfi  same_value, 91
    1748                            .dwcfi  same_value, 92
    1749                            .dwcfi  same_value, 93
    1750                            .dwcfi  same_value, 94
    1751                            .dwcfi  same_value, 95
    1752                            .dwendentry
    1753                            .dwendtag $C$DW$CU
    1754                    

--------------------------
Thumb2 Statistics
--------------------------
Number of Thumb2 ins converted to Thumb = 0 (0%)
Number of Thumb ins in input = 77 (68%)
Number of Thumb2 ins encoded as Thumb2 = 35 (100%)
Number of Thumb2 ins converted to 2 OPND Thumb = 0


No Assembly Errors, No Assembly Warnings
