TI ARM Assembler PC v5.2.5 Tue Apr 12 16:51:14 2016

Tools Copyright (c) 1996-2015 Texas Instruments Incorporated
Task_ReportData.asm                                                  PAGE    1

       1                    ;******************************************************************************
       2                    ;* TI ARM C/C++ Codegen                                             PC v5.2.5 *
       3                    ;* Date/Time created: Tue Apr 12 16:51:14 2016                                *
       4                    ;******************************************************************************
       5                            .compiler_opts --abi=eabi --arm_vmrs_si_workaround=off --code_state=16 --diag_wrap=off --disab
       6 00000000                   .thumb
       7                    
       8                    $C$DW$CU        .dwtag  DW_TAG_compile_unit
       9                            .dwattr $C$DW$CU, DW_AT_name("../Tasks/Task_ReportData.c")
      10                            .dwattr $C$DW$CU, DW_AT_producer("TI TI ARM C/C++ Codegen PC v5.2.5 Copyright (c) 1996-2015 Te
      11                            .dwattr $C$DW$CU, DW_AT_TI_version(0x01)
      12                            .dwattr $C$DW$CU, DW_AT_comp_dir("C:\Users\DreyCow\workspace\TI_ARM_Tiva_Projects_EECS_690_Sp1
      13                    
      14                    $C$DW$1 .dwtag  DW_TAG_subprogram, DW_AT_name("vTaskDelay")
      15                            .dwattr $C$DW$1, DW_AT_TI_symbol_name("vTaskDelay")
      16                            .dwattr $C$DW$1, DW_AT_declaration
      17                            .dwattr $C$DW$1, DW_AT_external
      18                            .dwattr $C$DW$1, DW_AT_decl_file("C:/Users/DreyCow/workspace/TI_ARM_Tiva_Projects_EECS_690_Sp1
      19                            .dwattr $C$DW$1, DW_AT_decl_line(0x22b)
      20                            .dwattr $C$DW$1, DW_AT_decl_column(0x06)
      21                    $C$DW$2 .dwtag  DW_TAG_formal_parameter
      22                            .dwattr $C$DW$2, DW_AT_type(*$C$DW$T$76)
      23                            .dwendtag $C$DW$1
      24                    
      25                    
      26                    $C$DW$3 .dwtag  DW_TAG_subprogram, DW_AT_name("UART_Init")
      27                            .dwattr $C$DW$3, DW_AT_TI_symbol_name("UART_Init")
      28                            .dwattr $C$DW$3, DW_AT_declaration
      29                            .dwattr $C$DW$3, DW_AT_external
      30                            .dwattr $C$DW$3, DW_AT_decl_file("C:/Users/DreyCow/workspace/TI_ARM_Tiva_Projects_EECS_690_Sp1
      31                            .dwattr $C$DW$3, DW_AT_decl_line(0x2b)
      32                            .dwattr $C$DW$3, DW_AT_decl_column(0x06)
      33                    
      34                    $C$DW$4 .dwtag  DW_TAG_subprogram, DW_AT_name("xQueueGenericSend")
      35                            .dwattr $C$DW$4, DW_AT_TI_symbol_name("xQueueGenericSend")
      36                            .dwattr $C$DW$4, DW_AT_type(*$C$DW$T$57)
      37                            .dwattr $C$DW$4, DW_AT_declaration
      38                            .dwattr $C$DW$4, DW_AT_external
      39                            .dwattr $C$DW$4, DW_AT_decl_file("C:/Users/DreyCow/workspace/TI_ARM_Tiva_Projects_EECS_690_Sp1
      40                            .dwattr $C$DW$4, DW_AT_decl_line(0x250)
      41                            .dwattr $C$DW$4, DW_AT_decl_column(0x0c)
      42                    $C$DW$5 .dwtag  DW_TAG_formal_parameter
      43                            .dwattr $C$DW$5, DW_AT_type(*$C$DW$T$65)
      44                    $C$DW$6 .dwtag  DW_TAG_formal_parameter
      45                            .dwattr $C$DW$6, DW_AT_type(*$C$DW$T$83)
      46                    $C$DW$7 .dwtag  DW_TAG_formal_parameter
      47                            .dwattr $C$DW$7, DW_AT_type(*$C$DW$T$35)
      48                    $C$DW$8 .dwtag  DW_TAG_formal_parameter
      49                            .dwattr $C$DW$8, DW_AT_type(*$C$DW$T$101)
      50                            .dwendtag $C$DW$4
      51                    
      52                    
      53                    $C$DW$9 .dwtag  DW_TAG_subprogram, DW_AT_name("xQueueGenericReceive")
      54                            .dwattr $C$DW$9, DW_AT_TI_symbol_name("xQueueGenericReceive")
      55                            .dwattr $C$DW$9, DW_AT_type(*$C$DW$T$57)
TI ARM Assembler PC v5.2.5 Tue Apr 12 16:51:14 2016

Tools Copyright (c) 1996-2015 Texas Instruments Incorporated
Task_ReportData.asm                                                  PAGE    2

      56                            .dwattr $C$DW$9, DW_AT_declaration
      57                            .dwattr $C$DW$9, DW_AT_external
      58                            .dwattr $C$DW$9, DW_AT_decl_file("C:/Users/DreyCow/workspace/TI_ARM_Tiva_Projects_EECS_690_Sp1
      59                            .dwattr $C$DW$9, DW_AT_decl_line(0x391)
      60                            .dwattr $C$DW$9, DW_AT_decl_column(0x0c)
      61                    $C$DW$10        .dwtag  DW_TAG_formal_parameter
      62                            .dwattr $C$DW$10, DW_AT_type(*$C$DW$T$65)
      63                    $C$DW$11        .dwtag  DW_TAG_formal_parameter
      64                            .dwattr $C$DW$11, DW_AT_type(*$C$DW$T$75)
      65                    $C$DW$12        .dwtag  DW_TAG_formal_parameter
      66                            .dwattr $C$DW$12, DW_AT_type(*$C$DW$T$35)
      67                    $C$DW$13        .dwtag  DW_TAG_formal_parameter
      68                            .dwattr $C$DW$13, DW_AT_type(*$C$DW$T$101)
      69                            .dwendtag $C$DW$9
      70                    
      71                    
      72                    $C$DW$14        .dwtag  DW_TAG_subprogram, DW_AT_name("xQueueCreateMutex")
      73                            .dwattr $C$DW$14, DW_AT_TI_symbol_name("xQueueCreateMutex")
      74                            .dwattr $C$DW$14, DW_AT_type(*$C$DW$T$65)
      75                            .dwattr $C$DW$14, DW_AT_declaration
      76                            .dwattr $C$DW$14, DW_AT_external
      77                            .dwattr $C$DW$14, DW_AT_decl_file("C:/Users/DreyCow/workspace/TI_ARM_Tiva_Projects_EECS_690_Sp
      78                            .dwattr $C$DW$14, DW_AT_decl_line(0x5c9)
      79                            .dwattr $C$DW$14, DW_AT_decl_column(0x0f)
      80                    $C$DW$15        .dwtag  DW_TAG_formal_parameter
      81                            .dwattr $C$DW$15, DW_AT_type(*$C$DW$T$67)
      82                            .dwendtag $C$DW$14
      83                    
      84                    
      85                    $C$DW$16        .dwtag  DW_TAG_subprogram, DW_AT_name("xQueueGenericCreate")
      86                            .dwattr $C$DW$16, DW_AT_TI_symbol_name("xQueueGenericCreate")
      87                            .dwattr $C$DW$16, DW_AT_type(*$C$DW$T$65)
      88                            .dwattr $C$DW$16, DW_AT_declaration
      89                            .dwattr $C$DW$16, DW_AT_external
      90                            .dwattr $C$DW$16, DW_AT_decl_file("C:/Users/DreyCow/workspace/TI_ARM_Tiva_Projects_EECS_690_Sp
      91                            .dwattr $C$DW$16, DW_AT_decl_line(0x606)
      92                            .dwattr $C$DW$16, DW_AT_decl_column(0x0f)
      93                    $C$DW$17        .dwtag  DW_TAG_formal_parameter
      94                            .dwattr $C$DW$17, DW_AT_type(*$C$DW$T$70)
      95                    $C$DW$18        .dwtag  DW_TAG_formal_parameter
      96                            .dwattr $C$DW$18, DW_AT_type(*$C$DW$T$70)
      97                    $C$DW$19        .dwtag  DW_TAG_formal_parameter
      98                            .dwattr $C$DW$19, DW_AT_type(*$C$DW$T$67)
      99                            .dwendtag $C$DW$16
     100                    
     101                    
     102                    $C$DW$20        .dwtag  DW_TAG_subprogram, DW_AT_name("printf")
     103                            .dwattr $C$DW$20, DW_AT_TI_symbol_name("printf")
     104                            .dwattr $C$DW$20, DW_AT_type(*$C$DW$T$10)
     105                            .dwattr $C$DW$20, DW_AT_declaration
     106                            .dwattr $C$DW$20, DW_AT_external
     107                            .dwattr $C$DW$20, DW_AT_decl_file("C:/ti/ccsv6/tools/compiler/ti-cgt-arm_5.2.5/include/stdio.h
     108                            .dwattr $C$DW$20, DW_AT_decl_line(0xf5)
     109                            .dwattr $C$DW$20, DW_AT_decl_column(0x19)
     110                    $C$DW$21        .dwtag  DW_TAG_formal_parameter
TI ARM Assembler PC v5.2.5 Tue Apr 12 16:51:14 2016

Tools Copyright (c) 1996-2015 Texas Instruments Incorporated
Task_ReportData.asm                                                  PAGE    3

     111                            .dwattr $C$DW$21, DW_AT_type(*$C$DW$T$44)
     112                    $C$DW$22        .dwtag  DW_TAG_unspecified_parameters
     113                            .dwendtag $C$DW$20
     114                    
     115                    
     116                    $C$DW$23        .dwtag  DW_TAG_subprogram, DW_AT_name("sprintf")
     117                            .dwattr $C$DW$23, DW_AT_TI_symbol_name("sprintf")
     118                            .dwattr $C$DW$23, DW_AT_type(*$C$DW$T$10)
     119                            .dwattr $C$DW$23, DW_AT_declaration
     120                            .dwattr $C$DW$23, DW_AT_external
     121                            .dwattr $C$DW$23, DW_AT_decl_file("C:/ti/ccsv6/tools/compiler/ti-cgt-arm_5.2.5/include/stdio.h
     122                            .dwattr $C$DW$23, DW_AT_decl_line(0xf9)
     123                            .dwattr $C$DW$23, DW_AT_decl_column(0x19)
     124                    $C$DW$24        .dwtag  DW_TAG_formal_parameter
     125                            .dwattr $C$DW$24, DW_AT_type(*$C$DW$T$98)
     126                    $C$DW$25        .dwtag  DW_TAG_formal_parameter
     127                            .dwattr $C$DW$25, DW_AT_type(*$C$DW$T$44)
     128                    $C$DW$26        .dwtag  DW_TAG_unspecified_parameters
     129                            .dwendtag $C$DW$23
     130                    
     131                            .global dataQueue
     132                            .common dataQueue,4,4
     133                    $C$DW$27        .dwtag  DW_TAG_variable, DW_AT_name("dataQueue")
     134                            .dwattr $C$DW$27, DW_AT_TI_symbol_name("dataQueue")
     135                            .dwattr $C$DW$27, DW_AT_location[DW_OP_addr dataQueue]
     136                            .dwattr $C$DW$27, DW_AT_type(*$C$DW$T$65)
     137                            .dwattr $C$DW$27, DW_AT_external
     138                            .dwattr $C$DW$27, DW_AT_decl_file("../Tasks/Task_ReportData.c")
     139                            .dwattr $C$DW$27, DW_AT_decl_line(0x1f)
     140                            .dwattr $C$DW$27, DW_AT_decl_column(0x0e)
     141                            .global xSemaphoreData
     142                            .common xSemaphoreData,4,4
     143                    $C$DW$28        .dwtag  DW_TAG_variable, DW_AT_name("xSemaphoreData")
     144                            .dwattr $C$DW$28, DW_AT_TI_symbol_name("xSemaphoreData")
     145                            .dwattr $C$DW$28, DW_AT_location[DW_OP_addr xSemaphoreData]
     146                            .dwattr $C$DW$28, DW_AT_type(*$C$DW$T$66)
     147                            .dwattr $C$DW$28, DW_AT_external
     148                            .dwattr $C$DW$28, DW_AT_decl_file("../Tasks/Task_ReportData.c")
     149                            .dwattr $C$DW$28, DW_AT_decl_line(0x20)
     150                            .dwattr $C$DW$28, DW_AT_decl_column(0x13)
     151                    ;       C:\ti\ccsv6\tools\compiler\ti-cgt-arm_5.2.5\bin\armacpia.exe -@C:\\Users\\DreyCow\\AppData\\Lo
     152 00000000                   .sect   ".text"
     153                            .clink
     154                            .thumbfunc Task_ReportData
     155 00000000                   .thumb
     156                            .global Task_ReportData
     157                    
     158                    $C$DW$29        .dwtag  DW_TAG_subprogram, DW_AT_name("Task_ReportData")
     159                            .dwattr $C$DW$29, DW_AT_low_pc(Task_ReportData)
     160                            .dwattr $C$DW$29, DW_AT_high_pc(0x00)
     161                            .dwattr $C$DW$29, DW_AT_TI_symbol_name("Task_ReportData")
     162                            .dwattr $C$DW$29, DW_AT_external
     163                            .dwattr $C$DW$29, DW_AT_TI_begin_file("../Tasks/Task_ReportData.c")
     164                            .dwattr $C$DW$29, DW_AT_TI_begin_line(0x22)
     165                            .dwattr $C$DW$29, DW_AT_TI_begin_column(0x0d)
TI ARM Assembler PC v5.2.5 Tue Apr 12 16:51:14 2016

Tools Copyright (c) 1996-2015 Texas Instruments Incorporated
Task_ReportData.asm                                                  PAGE    4

     166                            .dwattr $C$DW$29, DW_AT_decl_file("../Tasks/Task_ReportData.c")
     167                            .dwattr $C$DW$29, DW_AT_decl_line(0x22)
     168                            .dwattr $C$DW$29, DW_AT_decl_column(0x0d)
     169                            .dwattr $C$DW$29, DW_AT_TI_max_frame_size(0x328)
     170                            .dwpsn  file "../Tasks/Task_ReportData.c",line 34,column 51,is_stmt,address Task_ReportData,is
     171                    
     172                            .dwfde $C$DW$CIE, Task_ReportData
     173                    $C$DW$30        .dwtag  DW_TAG_formal_parameter, DW_AT_name("pvParameters")
     174                            .dwattr $C$DW$30, DW_AT_TI_symbol_name("pvParameters")
     175                            .dwattr $C$DW$30, DW_AT_type(*$C$DW$T$3)
     176                            .dwattr $C$DW$30, DW_AT_location[DW_OP_reg0]
     177                    
     178                    ;*****************************************************************************
     179                    ;* FUNCTION NAME: Task_ReportData                                            *
     180                    ;*                                                                           *
     181                    ;*   Regs Modified     : A1,A2,A3,A4,V9,SP,LR,SR,D0,D0_hi,D1,D1_hi,D2,D2_hi, *
     182                    ;*                           D3,D3_hi,D4,D4_hi,D5,D5_hi,D6,D6_hi,D7,D7_hi,   *
     183                    ;*                           FPEXC,FPSCR                                     *
     184                    ;*   Regs Used         : A1,A2,A3,A4,V9,SP,LR,SR,D0,D0_hi,D1,D1_hi,D2,D2_hi, *
     185                    ;*                           D3,D3_hi,D4,D4_hi,D5,D5_hi,D6,D6_hi,D7,D7_hi,   *
     186                    ;*                           FPEXC,FPSCR                                     *
     187                    ;*   Local Frame Size  : 0 Args + 804 Auto + 4 Save = 808 byte               *
     188                    ;*****************************************************************************
     189 00000000           Task_ReportData:
     190                    ;* --------------------------------------------------------------------------*
     191                            .dwcfi  cfa_offset, 0
     192 00000000 B500              PUSH      {LR}                  ; [DPU_3_PIPE]  ; [ORIG 16-BIT INS]
     193                            .dwcfi  cfa_offset, 4
     194                            .dwcfi  save_reg_to_mem, 14, -4
     195 00000002 7DFEF5AD          SUB       SP, SP, #508          ; [DPU_3_PIPE]  ; [KEEP 32-BIT INS]
     196                            .dwcfi  cfa_offset, 512
     197 00000006 7D94F5AD          SUB       SP, SP, #296          ; [DPU_3_PIPE]  ; [KEEP 32-BIT INS]
     198                            .dwcfi  cfa_offset, 808
     199                    $C$DW$31        .dwtag  DW_TAG_variable, DW_AT_name("pvParameters")
     200                            .dwattr $C$DW$31, DW_AT_TI_symbol_name("pvParameters")
     201                            .dwattr $C$DW$31, DW_AT_type(*$C$DW$T$3)
     202                            .dwattr $C$DW$31, DW_AT_location[DW_OP_breg13 0]
     203 0000000a 9000              STR       A1, [SP, #0]          ; [DPU_3_PIPE] |34|  ; [ORIG 16-BIT INS]
     204                            .dwpsn  file "../Tasks/Task_ReportData.c",line 36,column 2,is_stmt,isa 1
     205 0000000c 2120              MOVS      A2, #32               ; [DPU_3_PIPE] |36|  ; [ORIG 16-BIT INS]
     206 0000000e 2200              MOVS      A3, #0                ; [DPU_3_PIPE] |36|  ; [ORIG 16-BIT INS]
     207 00000010 2014              MOVS      A1, #20               ; [DPU_3_PIPE] |36|  ; [ORIG 16-BIT INS]
     208                    $C$DW$32        .dwtag  DW_TAG_TI_branch
     209                            .dwattr $C$DW$32, DW_AT_low_pc(0x00)
     210                            .dwattr $C$DW$32, DW_AT_name("xQueueGenericCreate")
     211                            .dwattr $C$DW$32, DW_AT_TI_call
     212 00000012 FFFEF7FF!         BL        xQueueGenericCreate   ; [DPU_3_PIPE] |36|  ; [KEEP 32-BIT INS]
     213                            ; CALL OCCURS {xQueueGenericCreate }  ; [] |36| 
     214 00000016 4931              LDR       A2, $C$CON1           ; [DPU_3_PIPE] |36|  ; [ORIG 16-BIT INS]
     215 00000018 6008              STR       A1, [A2, #0]          ; [DPU_3_PIPE] |36|  ; [ORIG 16-BIT INS]
     216                            .dwpsn  file "../Tasks/Task_ReportData.c",line 37,column 2,is_stmt,isa 1
     217                    $C$DW$33        .dwtag  DW_TAG_TI_branch
     218                            .dwattr $C$DW$33, DW_AT_low_pc(0x00)
     219                            .dwattr $C$DW$33, DW_AT_name("UART_Init")
     220                            .dwattr $C$DW$33, DW_AT_TI_call
TI ARM Assembler PC v5.2.5 Tue Apr 12 16:51:14 2016

Tools Copyright (c) 1996-2015 Texas Instruments Incorporated
Task_ReportData.asm                                                  PAGE    5

     221 0000001a FFFEF7FF!         BL        UART_Init             ; [DPU_3_PIPE] |37|  ; [KEEP 32-BIT INS]
     222                            ; CALL OCCURS {UART_Init }       ; [] |37| 
     223                            .dwpsn  file "../Tasks/Task_ReportData.c",line 40,column 2,is_stmt,isa 1
     224 0000001e 2001              MOVS      A1, #1                ; [DPU_3_PIPE] |40|  ; [ORIG 16-BIT INS]
     225                    $C$DW$34        .dwtag  DW_TAG_TI_branch
     226                            .dwattr $C$DW$34, DW_AT_low_pc(0x00)
     227                            .dwattr $C$DW$34, DW_AT_name("xQueueCreateMutex")
     228                            .dwattr $C$DW$34, DW_AT_TI_call
     229 00000020 FFFEF7FF!         BL        xQueueCreateMutex     ; [DPU_3_PIPE] |40|  ; [KEEP 32-BIT INS]
     230                            ; CALL OCCURS {xQueueCreateMutex }  ; [] |40| 
     231 00000024 492E              LDR       A2, $C$CON2           ; [DPU_3_PIPE] |40|  ; [ORIG 16-BIT INS]
     232 00000026 6008              STR       A1, [A2, #0]          ; [DPU_3_PIPE] |40|  ; [ORIG 16-BIT INS]
     233                            .dwpsn  file "../Tasks/Task_ReportData.c",line 46,column 2,is_stmt,isa 1
     234 00000028 707AF44F          MOV       A1, #1000             ; [DPU_3_PIPE] |46|  ; [KEEP 32-BIT INS]
     235                    $C$DW$35        .dwtag  DW_TAG_TI_branch
     236                            .dwattr $C$DW$35, DW_AT_low_pc(0x00)
     237                            .dwattr $C$DW$35, DW_AT_name("vTaskDelay")
     238                            .dwattr $C$DW$35, DW_AT_TI_call
     239 0000002c FFFEF7FF!         BL        vTaskDelay            ; [DPU_3_PIPE] |46|  ; [KEEP 32-BIT INS]
     240                            ; CALL OCCURS {vTaskDelay }      ; [] |46| 
     241                            .dwpsn  file "../Tasks/Task_ReportData.c",line 47,column 10,is_stmt,isa 1
     242                    ;* --------------------------------------------------------------------------*
     243                    ;*   BEGIN LOOP ||$C$L1||
     244                    ;*
     245                    ;*   Loop source line                : 47
     246                    ;*   Loop closing brace source line  : 72
     247                    ;*   Known Minimum Trip Count        : 1
     248                    ;*   Known Maximum Trip Count        : 4294967295
     249                    ;*   Known Max Trip Count Factor     : 1
     250                    ;* --------------------------------------------------------------------------*
     251 00000030           ||$C$L1||:    
     252                    
     253                    $C$DW$36        .dwtag  DW_TAG_lexical_block, DW_AT_low_pc(0x00), DW_AT_high_pc(0x00)
     254                    $C$DW$37        .dwtag  DW_TAG_variable, DW_AT_name("recievedPacket")
     255                            .dwattr $C$DW$37, DW_AT_TI_symbol_name("recievedPacket")
     256                            .dwattr $C$DW$37, DW_AT_type(*$C$DW$T$152)
     257                            .dwattr $C$DW$37, DW_AT_location[DW_OP_breg13 4]
     258                            .dwpsn  file "../Tasks/Task_ReportData.c",line 49,column 4,is_stmt,isa 1
     259 00000030 482B              LDR       A1, $C$CON2           ; [DPU_3_PIPE] |49|  ; [ORIG 16-BIT INS]
     260 00000032 6800              LDR       A1, [A1, #0]          ; [DPU_3_PIPE] |49|  ; [ORIG 16-BIT INS]
     261 00000034 2100              MOVS      A2, #0                ; [DPU_3_PIPE] |49|  ; [ORIG 16-BIT INS]
     262 00000036 2264              MOVS      A3, #100              ; [DPU_3_PIPE] |49|  ; [ORIG 16-BIT INS]
     263 00000038 2300              MOVS      A4, #0                ; [DPU_3_PIPE] |49|  ; [ORIG 16-BIT INS]
     264                    $C$DW$38        .dwtag  DW_TAG_TI_branch
     265                            .dwattr $C$DW$38, DW_AT_low_pc(0x00)
     266                            .dwattr $C$DW$38, DW_AT_name("xQueueGenericReceive")
     267                            .dwattr $C$DW$38, DW_AT_TI_call
     268 0000003a FFFEF7FF!         BL        xQueueGenericReceive  ; [DPU_3_PIPE] |49|  ; [KEEP 32-BIT INS]
     269                            ; CALL OCCURS {xQueueGenericReceive }  ; [] |49| 
     270 0000003e 2801              CMP       A1, #1                ; [DPU_3_PIPE] |49|  ; [ORIG 16-BIT INS]
     271 00000040 D136              BNE       ||$C$L4||             ; [DPU_3_PIPE] |49|  ; [ORIG 16-BIT INS]
     272                            ; BRANCHCC OCCURS {||$C$L4||}    ; [] |49| 
     273                    ;* --------------------------------------------------------------------------*
     274                            .dwpsn  file "../Tasks/Task_ReportData.c",line 51,column 5,is_stmt,isa 1
     275 00000042 E025              B         ||$C$L3||             ; [DPU_3_PIPE] |51|  ; [ORIG 16-BIT INS]
TI ARM Assembler PC v5.2.5 Tue Apr 12 16:51:14 2016

Tools Copyright (c) 1996-2015 Texas Instruments Incorporated
Task_ReportData.asm                                                  PAGE    6

     276                            ; BRANCH OCCURS {||$C$L3||}      ; [] |51| 
     277                    ;* --------------------------------------------------------------------------*
     278 00000044           ||$C$L2||:    
     279                    
     280                    $C$DW$39        .dwtag  DW_TAG_lexical_block, DW_AT_low_pc(0x00), DW_AT_high_pc(0x00)
     281                    $C$DW$40        .dwtag  DW_TAG_variable, DW_AT_name("buf0")
     282                            .dwattr $C$DW$40, DW_AT_TI_symbol_name("buf0")
     283                            .dwattr $C$DW$40, DW_AT_type(*$C$DW$T$141)
     284                            .dwattr $C$DW$40, DW_AT_location[DW_OP_breg13 36]
     285                    $C$DW$41        .dwtag  DW_TAG_variable, DW_AT_name("buf1")
     286                            .dwattr $C$DW$41, DW_AT_TI_symbol_name("buf1")
     287                            .dwattr $C$DW$41, DW_AT_type(*$C$DW$T$141)
     288                            .dwattr $C$DW$41, DW_AT_location[DW_OP_breg13 292]
     289                    $C$DW$42        .dwtag  DW_TAG_variable, DW_AT_name("buf2")
     290                            .dwattr $C$DW$42, DW_AT_TI_symbol_name("buf2")
     291                            .dwattr $C$DW$42, DW_AT_type(*$C$DW$T$141)
     292                            .dwattr $C$DW$42, DW_AT_location[DW_OP_breg13 548]
     293                            .dwpsn  file "../Tasks/Task_ReportData.c",line 53,column 6,is_stmt,isa 1
     294 00000044 A01D              ADR       A1, $C$SL1            ; [DPU_3_PIPE] |53|  ; [ORIG 16-BIT INS]
     295 00000046 A901              ADD       A2, SP, #4            ; [DPU_3_PIPE] |53|  ; [ORIG 16-BIT INS]
     296                    $C$DW$43        .dwtag  DW_TAG_TI_branch
     297                            .dwattr $C$DW$43, DW_AT_low_pc(0x00)
     298                            .dwattr $C$DW$43, DW_AT_name("printf")
     299                            .dwattr $C$DW$43, DW_AT_TI_call
     300 00000048 FFFEF7FF!         BL        printf                ; [DPU_3_PIPE] |53|  ; [KEEP 32-BIT INS]
     301                            ; CALL OCCURS {printf }          ; [] |53| 
     302                            .dwpsn  file "../Tasks/Task_ReportData.c",line 56,column 6,is_stmt,isa 1
     303 0000004c 9A06              LDR       A3, [SP, #24]         ; [DPU_3_PIPE] |56|  ; [ORIG 16-BIT INS]
     304 0000004e A809              ADD       A1, SP, #36           ; [DPU_3_PIPE] |56|  ; [ORIG 16-BIT INS]
     305 00000050 A11C              ADR       A2, $C$SL2            ; [DPU_3_PIPE] |56|  ; [ORIG 16-BIT INS]
     306                    $C$DW$44        .dwtag  DW_TAG_TI_branch
     307                            .dwattr $C$DW$44, DW_AT_low_pc(0x00)
     308                            .dwattr $C$DW$44, DW_AT_name("sprintf")
     309                            .dwattr $C$DW$44, DW_AT_TI_call
     310 00000052 FFFEF7FF!         BL        sprintf               ; [DPU_3_PIPE] |56|  ; [KEEP 32-BIT INS]
     311                            ; CALL OCCURS {sprintf }         ; [] |56| 
     312                            .dwpsn  file "../Tasks/Task_ReportData.c",line 57,column 6,is_stmt,isa 1
     313 00000056 A01C              ADR       A1, $C$SL3            ; [DPU_3_PIPE] |57|  ; [ORIG 16-BIT INS]
     314 00000058 A909              ADD       A2, SP, #36           ; [DPU_3_PIPE] |57|  ; [ORIG 16-BIT INS]
     315                    $C$DW$45        .dwtag  DW_TAG_TI_branch
     316                            .dwattr $C$DW$45, DW_AT_low_pc(0x00)
     317                            .dwattr $C$DW$45, DW_AT_name("printf")
     318                            .dwattr $C$DW$45, DW_AT_TI_call
     319 0000005a FFFEF7FF!         BL        printf                ; [DPU_3_PIPE] |57|  ; [KEEP 32-BIT INS]
     320                            ; CALL OCCURS {printf }          ; [] |57| 
     321                            .dwpsn  file "../Tasks/Task_ReportData.c",line 60,column 6,is_stmt,isa 1
     322 0000005e 9A07              LDR       A3, [SP, #28]         ; [DPU_3_PIPE] |60|  ; [ORIG 16-BIT INS]
     323 00000060 A849              ADD       A1, SP, #292          ; [DPU_3_PIPE] |60|  ; [ORIG 16-BIT INS]
     324 00000062 A118              ADR       A2, $C$SL2            ; [DPU_3_PIPE] |60|  ; [ORIG 16-BIT INS]
     325                    $C$DW$46        .dwtag  DW_TAG_TI_branch
     326                            .dwattr $C$DW$46, DW_AT_low_pc(0x00)
     327                            .dwattr $C$DW$46, DW_AT_name("sprintf")
     328                            .dwattr $C$DW$46, DW_AT_TI_call
     329 00000064 FFFEF7FF!         BL        sprintf               ; [DPU_3_PIPE] |60|  ; [KEEP 32-BIT INS]
     330                            ; CALL OCCURS {sprintf }         ; [] |60| 
TI ARM Assembler PC v5.2.5 Tue Apr 12 16:51:14 2016

Tools Copyright (c) 1996-2015 Texas Instruments Incorporated
Task_ReportData.asm                                                  PAGE    7

     331                            .dwpsn  file "../Tasks/Task_ReportData.c",line 61,column 6,is_stmt,isa 1
     332 00000068 A017              ADR       A1, $C$SL3            ; [DPU_3_PIPE] |61|  ; [ORIG 16-BIT INS]
     333 0000006a A949              ADD       A2, SP, #292          ; [DPU_3_PIPE] |61|  ; [ORIG 16-BIT INS]
     334                    $C$DW$47        .dwtag  DW_TAG_TI_branch
     335                            .dwattr $C$DW$47, DW_AT_low_pc(0x00)
     336                            .dwattr $C$DW$47, DW_AT_name("printf")
     337                            .dwattr $C$DW$47, DW_AT_TI_call
     338 0000006c FFFEF7FF!         BL        printf                ; [DPU_3_PIPE] |61|  ; [KEEP 32-BIT INS]
     339                            ; CALL OCCURS {printf }          ; [] |61| 
     340                            .dwpsn  file "../Tasks/Task_ReportData.c",line 64,column 6,is_stmt,isa 1
     341 00000070 9808              LDR       A1, [SP, #32]         ; [DPU_3_PIPE] |64|  ; [ORIG 16-BIT INS]
     342                    $C$DW$48        .dwtag  DW_TAG_TI_branch
     343                            .dwattr $C$DW$48, DW_AT_low_pc(0x00)
     344                            .dwattr $C$DW$48, DW_AT_name("__aeabi_f2d")
     345                            .dwattr $C$DW$48, DW_AT_TI_call
     346 00000072 FFFEF7FF!         BL        __aeabi_f2d           ; [DPU_3_PIPE] |64|  ; [KEEP 32-BIT INS]
     347                            ; CALL OCCURS {__aeabi_f2d }     ; [] |64| 
     348 00000076 4602              MOV       A3, A1                ; [DPU_3_PIPE] |64|  ; [ORIG 16-BIT INS]
     349 00000078 460B              MOV       A4, A2                ; [DPU_3_PIPE] |64|  ; [ORIG 16-BIT INS]
     350 0000007a A889              ADD       A1, SP, #548          ; [DPU_3_PIPE] |64|  ; [ORIG 16-BIT INS]
     351 0000007c A114              ADR       A2, $C$SL4            ; [DPU_3_PIPE] |64|  ; [ORIG 16-BIT INS]
     352                    $C$DW$49        .dwtag  DW_TAG_TI_branch
     353                            .dwattr $C$DW$49, DW_AT_low_pc(0x00)
     354                            .dwattr $C$DW$49, DW_AT_name("sprintf")
     355                            .dwattr $C$DW$49, DW_AT_TI_call
     356 0000007e FFFEF7FF!         BL        sprintf               ; [DPU_3_PIPE] |64|  ; [KEEP 32-BIT INS]
     357                            ; CALL OCCURS {sprintf }         ; [] |64| 
     358                            .dwpsn  file "../Tasks/Task_ReportData.c",line 65,column 6,is_stmt,isa 1
     359 00000082 A011              ADR       A1, $C$SL3            ; [DPU_3_PIPE] |65|  ; [ORIG 16-BIT INS]
     360 00000084 A989              ADD       A2, SP, #548          ; [DPU_3_PIPE] |65|  ; [ORIG 16-BIT INS]
     361                    $C$DW$50        .dwtag  DW_TAG_TI_branch
     362                            .dwattr $C$DW$50, DW_AT_low_pc(0x00)
     363                            .dwattr $C$DW$50, DW_AT_name("printf")
     364                            .dwattr $C$DW$50, DW_AT_TI_call
     365 00000086 FFFEF7FF!         BL        printf                ; [DPU_3_PIPE] |65|  ; [KEEP 32-BIT INS]
     366                            ; CALL OCCURS {printf }          ; [] |65| 
     367                            .dwpsn  file "../Tasks/Task_ReportData.c",line 67,column 6,is_stmt,isa 1
     368 0000008a A013              ADR       A1, $C$SL5            ; [DPU_3_PIPE] |67|  ; [ORIG 16-BIT INS]
     369                    $C$DW$51        .dwtag  DW_TAG_TI_branch
     370                            .dwattr $C$DW$51, DW_AT_low_pc(0x00)
     371                            .dwattr $C$DW$51, DW_AT_name("printf")
     372                            .dwattr $C$DW$51, DW_AT_TI_call
     373 0000008c FFFEF7FF!         BL        printf                ; [DPU_3_PIPE] |67|  ; [KEEP 32-BIT INS]
     374                            ; CALL OCCURS {printf }          ; [] |67| 
     375                            .dwendtag $C$DW$39
     376                    
     377                    ;* --------------------------------------------------------------------------*
     378                    ;*   BEGIN LOOP ||$C$L3||
     379                    ;* --------------------------------------------------------------------------*
     380 00000090           ||$C$L3||:    
     381                            .dwpsn  file "../Tasks/Task_ReportData.c",line 51,column 5,is_stmt,isa 1
     382 00000090 4812              LDR       A1, $C$CON1           ; [DPU_3_PIPE] |51|  ; [ORIG 16-BIT INS]
     383 00000092 6800              LDR       A1, [A1, #0]          ; [DPU_3_PIPE] |51|  ; [ORIG 16-BIT INS]
     384 00000094 A901              ADD       A2, SP, #4            ; [DPU_3_PIPE] |51|  ; [ORIG 16-BIT INS]
     385 00000096 2200              MOVS      A3, #0                ; [DPU_3_PIPE] |51|  ; [ORIG 16-BIT INS]
TI ARM Assembler PC v5.2.5 Tue Apr 12 16:51:14 2016

Tools Copyright (c) 1996-2015 Texas Instruments Incorporated
Task_ReportData.asm                                                  PAGE    8

     386 00000098 2300              MOVS      A4, #0                ; [DPU_3_PIPE] |51|  ; [ORIG 16-BIT INS]
     387                    $C$DW$52        .dwtag  DW_TAG_TI_branch
     388                            .dwattr $C$DW$52, DW_AT_low_pc(0x00)
     389                            .dwattr $C$DW$52, DW_AT_name("xQueueGenericReceive")
     390                            .dwattr $C$DW$52, DW_AT_TI_call
     391 0000009a FFFEF7FF!         BL        xQueueGenericReceive  ; [DPU_3_PIPE] |51|  ; [KEEP 32-BIT INS]
     392                            ; CALL OCCURS {xQueueGenericReceive }  ; [] |51| 
     393 0000009e 2800              CMP       A1, #0                ; [DPU_3_PIPE] |51|  ; [ORIG 16-BIT INS]
     394 000000a0 D1D0              BNE       ||$C$L2||             ; [DPU_3_PIPE] |51|  ; [ORIG 16-BIT INS]
     395                            ; BRANCHCC OCCURS {||$C$L2||}    ; [] |51| 
     396                    ;* --------------------------------------------------------------------------*
     397                            .dwpsn  file "../Tasks/Task_ReportData.c",line 69,column 5,is_stmt,isa 1
     398 000000a2 480F              LDR       A1, $C$CON2           ; [DPU_3_PIPE] |69|  ; [ORIG 16-BIT INS]
     399 000000a4 6800              LDR       A1, [A1, #0]          ; [DPU_3_PIPE] |69|  ; [ORIG 16-BIT INS]
     400 000000a6 2100              MOVS      A2, #0                ; [DPU_3_PIPE] |69|  ; [ORIG 16-BIT INS]
     401 000000a8 2200              MOVS      A3, #0                ; [DPU_3_PIPE] |69|  ; [ORIG 16-BIT INS]
     402 000000aa 2300              MOVS      A4, #0                ; [DPU_3_PIPE] |69|  ; [ORIG 16-BIT INS]
     403                    $C$DW$53        .dwtag  DW_TAG_TI_branch
     404                            .dwattr $C$DW$53, DW_AT_low_pc(0x00)
     405                            .dwattr $C$DW$53, DW_AT_name("xQueueGenericSend")
     406                            .dwattr $C$DW$53, DW_AT_TI_call
     407 000000ac FFFEF7FF!         BL        xQueueGenericSend     ; [DPU_3_PIPE] |69|  ; [KEEP 32-BIT INS]
     408                            ; CALL OCCURS {xQueueGenericSend }  ; [] |69| 
     409                    ;* --------------------------------------------------------------------------*
     410 000000b0           ||$C$L4||:    
     411                            .dwpsn  file "../Tasks/Task_ReportData.c",line 71,column 3,is_stmt,isa 1
     412 000000b0 70FAF44F          MOV       A1, #500              ; [DPU_3_PIPE] |71|  ; [KEEP 32-BIT INS]
     413                    $C$DW$54        .dwtag  DW_TAG_TI_branch
     414                            .dwattr $C$DW$54, DW_AT_low_pc(0x00)
     415                            .dwattr $C$DW$54, DW_AT_name("vTaskDelay")
     416                            .dwattr $C$DW$54, DW_AT_TI_call
     417 000000b4 FFFEF7FF!         BL        vTaskDelay            ; [DPU_3_PIPE] |71|  ; [KEEP 32-BIT INS]
     418                            ; CALL OCCURS {vTaskDelay }      ; [] |71| 
     419                            .dwendtag $C$DW$36
     420                    
     421                            .dwpsn  file "../Tasks/Task_ReportData.c",line 47,column 10,is_stmt,isa 1
     422 000000b8 E7BA              B         ||$C$L1||             ; [DPU_3_PIPE] |47|  ; [ORIG 16-BIT INS]
     423                            ; BRANCH OCCURS {||$C$L1||}      ; [] |47| 
     424                    ;* --------------------------------------------------------------------------*
     425                            .dwattr $C$DW$29, DW_AT_TI_end_file("../Tasks/Task_ReportData.c")
     426                            .dwattr $C$DW$29, DW_AT_TI_end_line(0x49)
     427                            .dwattr $C$DW$29, DW_AT_TI_end_column(0x01)
     428                            .dwendentry
     429                            .dwendtag $C$DW$29
     430                    
     431                    ;******************************************************************************
     432                    ;* STRINGS                                                                    *
     433                    ;******************************************************************************
     434 000000ba                   .sect   ".text"
     435                            .align  4
     436 000000bc 25        ||$C$SL1||:     .string "%-20s",0
         000000bd 2D       
         000000be 32       
         000000bf 30       
         000000c0 73       
TI ARM Assembler PC v5.2.5 Tue Apr 12 16:51:14 2016

Tools Copyright (c) 1996-2015 Texas Instruments Incorporated
Task_ReportData.asm                                                  PAGE    9

         000000c1 00       
     437                            .align  4
     438 000000c4 25        ||$C$SL2||:     .string "%d",0
         000000c5 64       
         000000c6 00       
     439                            .align  4
     440 000000c8 25        ||$C$SL3||:     .string "%-10s",0
         000000c9 2D       
         000000ca 31       
         000000cb 30       
         000000cc 73       
         000000cd 00       
     441                            .align  4
     442 000000d0 25        ||$C$SL4||:     .string "%.2f",0
         000000d1 2E       
         000000d2 32       
         000000d3 66       
         000000d4 00       
     443                            .align  4
     444 000000d8 0A        ||$C$SL5||:     .string 10,0
         000000d9 00       
     445                    ;******************************************************************************
     446                    ;* CONSTANT TABLE                                                             *
     447                    ;******************************************************************************
     448 000000da                   .sect   ".text"
     449                            .align  4
     450 000000da 000046C0! ||$C$CON1||:    .bits   dataQueue,32
         000000de 00000000 
     451                            .align  4
     452 000000de 00000000! ||$C$CON2||:    .bits   xSemaphoreData,32
         000000e2 00000000 
     453                    ;*****************************************************************************
     454                    ;* UNDEFINED EXTERNAL REFERENCES                                             *
     455                    ;*****************************************************************************
     456                            .global vTaskDelay
     457                            .global UART_Init
     458                            .global xQueueGenericSend
     459                            .global xQueueGenericReceive
     460                            .global xQueueCreateMutex
     461                            .global xQueueGenericCreate
     462                            .global printf
     463                            .global sprintf
     464                            .global __aeabi_f2d
     465                    
     466                    ;******************************************************************************
     467                    ;* BUILD ATTRIBUTES                                                           *
     468                    ;******************************************************************************
     469                            .battr "aeabi", Tag_File, 1, Tag_ABI_PCS_wchar_t(2)
     470                            .battr "aeabi", Tag_File, 1, Tag_ABI_FP_rounding(0)
     471                            .battr "aeabi", Tag_File, 1, Tag_ABI_FP_denormal(0)
     472                            .battr "aeabi", Tag_File, 1, Tag_ABI_FP_exceptions(0)
     473                            .battr "aeabi", Tag_File, 1, Tag_ABI_FP_number_model(1)
     474                            .battr "aeabi", Tag_File, 1, Tag_ABI_enum_size(1)
     475                            .battr "aeabi", Tag_File, 1, Tag_ABI_optimization_goals(5)
     476                            .battr "aeabi", Tag_File, 1, Tag_ABI_FP_optimization_goals(0)
TI ARM Assembler PC v5.2.5 Tue Apr 12 16:51:14 2016

Tools Copyright (c) 1996-2015 Texas Instruments Incorporated
Task_ReportData.asm                                                  PAGE   10

     477                            .battr "TI", Tag_File, 1, Tag_Bitfield_layout(2)
     478                            .battr "TI", Tag_File, 1, Tag_FP_interface(0)
     479                    
     480                    ;******************************************************************************
     481                    ;* TYPE INFORMATION                                                           *
     482                    ;******************************************************************************
     483                    
     484                    $C$DW$T$53      .dwtag  DW_TAG_enumeration_type
     485                            .dwattr $C$DW$T$53, DW_AT_byte_size(0x01)
     486                    $C$DW$55        .dwtag  DW_TAG_enumerator, DW_AT_name("eRunning"), DW_AT_const_value(0x00)
     487                            .dwattr $C$DW$55, DW_AT_decl_file("C:/Users/DreyCow/workspace/TI_ARM_Tiva_Projects_EECS_690_Sp
     488                            .dwattr $C$DW$55, DW_AT_decl_line(0x72)
     489                            .dwattr $C$DW$55, DW_AT_decl_column(0x02)
     490                    $C$DW$56        .dwtag  DW_TAG_enumerator, DW_AT_name("eReady"), DW_AT_const_value(0x01)
     491                            .dwattr $C$DW$56, DW_AT_decl_file("C:/Users/DreyCow/workspace/TI_ARM_Tiva_Projects_EECS_690_Sp
     492                            .dwattr $C$DW$56, DW_AT_decl_line(0x73)
     493                            .dwattr $C$DW$56, DW_AT_decl_column(0x02)
     494                    $C$DW$57        .dwtag  DW_TAG_enumerator, DW_AT_name("eBlocked"), DW_AT_const_value(0x02)
     495                            .dwattr $C$DW$57, DW_AT_decl_file("C:/Users/DreyCow/workspace/TI_ARM_Tiva_Projects_EECS_690_Sp
     496                            .dwattr $C$DW$57, DW_AT_decl_line(0x74)
     497                            .dwattr $C$DW$57, DW_AT_decl_column(0x02)
     498                    $C$DW$58        .dwtag  DW_TAG_enumerator, DW_AT_name("eSuspended"), DW_AT_const_value(0x03)
     499                            .dwattr $C$DW$58, DW_AT_decl_file("C:/Users/DreyCow/workspace/TI_ARM_Tiva_Projects_EECS_690_Sp
     500                            .dwattr $C$DW$58, DW_AT_decl_line(0x75)
     501                            .dwattr $C$DW$58, DW_AT_decl_column(0x02)
     502                    $C$DW$59        .dwtag  DW_TAG_enumerator, DW_AT_name("eDeleted"), DW_AT_const_value(0x04)
     503                            .dwattr $C$DW$59, DW_AT_decl_file("C:/Users/DreyCow/workspace/TI_ARM_Tiva_Projects_EECS_690_Sp
     504                            .dwattr $C$DW$59, DW_AT_decl_line(0x76)
     505                            .dwattr $C$DW$59, DW_AT_decl_column(0x02)
     506                            .dwendtag $C$DW$T$53
     507                    
     508                            .dwattr $C$DW$T$53, DW_AT_decl_file("C:/Users/DreyCow/workspace/TI_ARM_Tiva_Projects_EECS_690_
     509                            .dwattr $C$DW$T$53, DW_AT_decl_line(0x71)
     510                            .dwattr $C$DW$T$53, DW_AT_decl_column(0x01)
     511                    $C$DW$T$54      .dwtag  DW_TAG_typedef, DW_AT_name("eTaskState")
     512                            .dwattr $C$DW$T$54, DW_AT_type(*$C$DW$T$53)
     513                            .dwattr $C$DW$T$54, DW_AT_language(DW_LANG_C)
     514                            .dwattr $C$DW$T$54, DW_AT_decl_file("C:/Users/DreyCow/workspace/TI_ARM_Tiva_Projects_EECS_690_
     515                            .dwattr $C$DW$T$54, DW_AT_decl_line(0x77)
     516                            .dwattr $C$DW$T$54, DW_AT_decl_column(0x03)
     517                    
     518                    $C$DW$T$59      .dwtag  DW_TAG_enumeration_type
     519                            .dwattr $C$DW$T$59, DW_AT_byte_size(0x01)
     520                    $C$DW$60        .dwtag  DW_TAG_enumerator, DW_AT_name("eNoAction"), DW_AT_const_value(0x00)
     521                            .dwattr $C$DW$60, DW_AT_decl_file("C:/Users/DreyCow/workspace/TI_ARM_Tiva_Projects_EECS_690_Sp
     522                            .dwattr $C$DW$60, DW_AT_decl_line(0x7c)
     523                            .dwattr $C$DW$60, DW_AT_decl_column(0x02)
     524                    $C$DW$61        .dwtag  DW_TAG_enumerator, DW_AT_name("eSetBits"), DW_AT_const_value(0x01)
     525                            .dwattr $C$DW$61, DW_AT_decl_file("C:/Users/DreyCow/workspace/TI_ARM_Tiva_Projects_EECS_690_Sp
     526                            .dwattr $C$DW$61, DW_AT_decl_line(0x7d)
     527                            .dwattr $C$DW$61, DW_AT_decl_column(0x02)
     528                    $C$DW$62        .dwtag  DW_TAG_enumerator, DW_AT_name("eIncrement"), DW_AT_const_value(0x02)
     529                            .dwattr $C$DW$62, DW_AT_decl_file("C:/Users/DreyCow/workspace/TI_ARM_Tiva_Projects_EECS_690_Sp
     530                            .dwattr $C$DW$62, DW_AT_decl_line(0x7e)
     531                            .dwattr $C$DW$62, DW_AT_decl_column(0x02)
TI ARM Assembler PC v5.2.5 Tue Apr 12 16:51:14 2016

Tools Copyright (c) 1996-2015 Texas Instruments Incorporated
Task_ReportData.asm                                                  PAGE   11

     532                    $C$DW$63        .dwtag  DW_TAG_enumerator, DW_AT_name("eSetValueWithOverwrite"), DW_AT_const_value(0x0
     533                            .dwattr $C$DW$63, DW_AT_decl_file("C:/Users/DreyCow/workspace/TI_ARM_Tiva_Projects_EECS_690_Sp
     534                            .dwattr $C$DW$63, DW_AT_decl_line(0x7f)
     535                            .dwattr $C$DW$63, DW_AT_decl_column(0x02)
     536                    $C$DW$64        .dwtag  DW_TAG_enumerator, DW_AT_name("eSetValueWithoutOverwrite"), DW_AT_const_value(
     537                            .dwattr $C$DW$64, DW_AT_decl_file("C:/Users/DreyCow/workspace/TI_ARM_Tiva_Projects_EECS_690_Sp
     538                            .dwattr $C$DW$64, DW_AT_decl_line(0x80)
     539                            .dwattr $C$DW$64, DW_AT_decl_column(0x02)
     540                            .dwendtag $C$DW$T$59
     541                    
     542                            .dwattr $C$DW$T$59, DW_AT_decl_file("C:/Users/DreyCow/workspace/TI_ARM_Tiva_Projects_EECS_690_
     543                            .dwattr $C$DW$T$59, DW_AT_decl_line(0x7b)
     544                            .dwattr $C$DW$T$59, DW_AT_decl_column(0x01)
     545                    $C$DW$T$60      .dwtag  DW_TAG_typedef, DW_AT_name("eNotifyAction")
     546                            .dwattr $C$DW$T$60, DW_AT_type(*$C$DW$T$59)
     547                            .dwattr $C$DW$T$60, DW_AT_language(DW_LANG_C)
     548                            .dwattr $C$DW$T$60, DW_AT_decl_file("C:/Users/DreyCow/workspace/TI_ARM_Tiva_Projects_EECS_690_
     549                            .dwattr $C$DW$T$60, DW_AT_decl_line(0x81)
     550                            .dwattr $C$DW$T$60, DW_AT_decl_column(0x03)
     551                    
     552                    $C$DW$T$61      .dwtag  DW_TAG_enumeration_type
     553                            .dwattr $C$DW$T$61, DW_AT_byte_size(0x01)
     554                    $C$DW$65        .dwtag  DW_TAG_enumerator, DW_AT_name("eAbortSleep"), DW_AT_const_value(0x00)
     555                            .dwattr $C$DW$65, DW_AT_decl_file("C:/Users/DreyCow/workspace/TI_ARM_Tiva_Projects_EECS_690_Sp
     556                            .dwattr $C$DW$65, DW_AT_decl_line(0xb5)
     557                            .dwattr $C$DW$65, DW_AT_decl_column(0x02)
     558                    $C$DW$66        .dwtag  DW_TAG_enumerator, DW_AT_name("eStandardSleep"), DW_AT_const_value(0x01)
     559                            .dwattr $C$DW$66, DW_AT_decl_file("C:/Users/DreyCow/workspace/TI_ARM_Tiva_Projects_EECS_690_Sp
     560                            .dwattr $C$DW$66, DW_AT_decl_line(0xb6)
     561                            .dwattr $C$DW$66, DW_AT_decl_column(0x02)
     562                    $C$DW$67        .dwtag  DW_TAG_enumerator, DW_AT_name("eNoTasksWaitingTimeout"), DW_AT_const_value(0x0
     563                            .dwattr $C$DW$67, DW_AT_decl_file("C:/Users/DreyCow/workspace/TI_ARM_Tiva_Projects_EECS_690_Sp
     564                            .dwattr $C$DW$67, DW_AT_decl_line(0xb7)
     565                            .dwattr $C$DW$67, DW_AT_decl_column(0x02)
     566                            .dwendtag $C$DW$T$61
     567                    
     568                            .dwattr $C$DW$T$61, DW_AT_decl_file("C:/Users/DreyCow/workspace/TI_ARM_Tiva_Projects_EECS_690_
     569                            .dwattr $C$DW$T$61, DW_AT_decl_line(0xb4)
     570                            .dwattr $C$DW$T$61, DW_AT_decl_column(0x01)
     571                    $C$DW$T$62      .dwtag  DW_TAG_typedef, DW_AT_name("eSleepModeStatus")
     572                            .dwattr $C$DW$T$62, DW_AT_type(*$C$DW$T$61)
     573                            .dwattr $C$DW$T$62, DW_AT_language(DW_LANG_C)
     574                            .dwattr $C$DW$T$62, DW_AT_decl_file("C:/Users/DreyCow/workspace/TI_ARM_Tiva_Projects_EECS_690_
     575                            .dwattr $C$DW$T$62, DW_AT_decl_line(0xb8)
     576                            .dwattr $C$DW$T$62, DW_AT_decl_column(0x03)
     577                    
     578                    $C$DW$T$20      .dwtag  DW_TAG_structure_type
     579                            .dwattr $C$DW$T$20, DW_AT_byte_size(0x18)
     580                    $C$DW$68        .dwtag  DW_TAG_member
     581                            .dwattr $C$DW$68, DW_AT_type(*$C$DW$T$10)
     582                            .dwattr $C$DW$68, DW_AT_name("fd")
     583                            .dwattr $C$DW$68, DW_AT_TI_symbol_name("fd")
     584                            .dwattr $C$DW$68, DW_AT_data_member_location[DW_OP_plus_uconst 0x0]
     585                            .dwattr $C$DW$68, DW_AT_accessibility(DW_ACCESS_public)
     586                            .dwattr $C$DW$68, DW_AT_decl_file("C:/ti/ccsv6/tools/compiler/ti-cgt-arm_5.2.5/include/stdio.h
TI ARM Assembler PC v5.2.5 Tue Apr 12 16:51:14 2016

Tools Copyright (c) 1996-2015 Texas Instruments Incorporated
Task_ReportData.asm                                                  PAGE   12

     587                            .dwattr $C$DW$68, DW_AT_decl_line(0x5c)
     588                            .dwattr $C$DW$68, DW_AT_decl_column(0x0b)
     589                    $C$DW$69        .dwtag  DW_TAG_member
     590                            .dwattr $C$DW$69, DW_AT_type(*$C$DW$T$19)
     591                            .dwattr $C$DW$69, DW_AT_name("buf")
     592                            .dwattr $C$DW$69, DW_AT_TI_symbol_name("buf")
     593                            .dwattr $C$DW$69, DW_AT_data_member_location[DW_OP_plus_uconst 0x4]
     594                            .dwattr $C$DW$69, DW_AT_accessibility(DW_ACCESS_public)
     595                            .dwattr $C$DW$69, DW_AT_decl_file("C:/ti/ccsv6/tools/compiler/ti-cgt-arm_5.2.5/include/stdio.h
     596                            .dwattr $C$DW$69, DW_AT_decl_line(0x5d)
     597                            .dwattr $C$DW$69, DW_AT_decl_column(0x16)
     598                    $C$DW$70        .dwtag  DW_TAG_member
     599                            .dwattr $C$DW$70, DW_AT_type(*$C$DW$T$19)
     600                            .dwattr $C$DW$70, DW_AT_name("pos")
     601                            .dwattr $C$DW$70, DW_AT_TI_symbol_name("pos")
     602                            .dwattr $C$DW$70, DW_AT_data_member_location[DW_OP_plus_uconst 0x8]
     603                            .dwattr $C$DW$70, DW_AT_accessibility(DW_ACCESS_public)
     604                            .dwattr $C$DW$70, DW_AT_decl_file("C:/ti/ccsv6/tools/compiler/ti-cgt-arm_5.2.5/include/stdio.h
     605                            .dwattr $C$DW$70, DW_AT_decl_line(0x5e)
     606                            .dwattr $C$DW$70, DW_AT_decl_column(0x16)
     607                    $C$DW$71        .dwtag  DW_TAG_member
     608                            .dwattr $C$DW$71, DW_AT_type(*$C$DW$T$19)
     609                            .dwattr $C$DW$71, DW_AT_name("bufend")
     610                            .dwattr $C$DW$71, DW_AT_TI_symbol_name("bufend")
     611                            .dwattr $C$DW$71, DW_AT_data_member_location[DW_OP_plus_uconst 0xc]
     612                            .dwattr $C$DW$71, DW_AT_accessibility(DW_ACCESS_public)
     613                            .dwattr $C$DW$71, DW_AT_decl_file("C:/ti/ccsv6/tools/compiler/ti-cgt-arm_5.2.5/include/stdio.h
     614                            .dwattr $C$DW$71, DW_AT_decl_line(0x5f)
     615                            .dwattr $C$DW$71, DW_AT_decl_column(0x16)
     616                    $C$DW$72        .dwtag  DW_TAG_member
     617                            .dwattr $C$DW$72, DW_AT_type(*$C$DW$T$19)
     618                            .dwattr $C$DW$72, DW_AT_name("buff_stop")
     619                            .dwattr $C$DW$72, DW_AT_TI_symbol_name("buff_stop")
     620                            .dwattr $C$DW$72, DW_AT_data_member_location[DW_OP_plus_uconst 0x10]
     621                            .dwattr $C$DW$72, DW_AT_accessibility(DW_ACCESS_public)
     622                            .dwattr $C$DW$72, DW_AT_decl_file("C:/ti/ccsv6/tools/compiler/ti-cgt-arm_5.2.5/include/stdio.h
     623                            .dwattr $C$DW$72, DW_AT_decl_line(0x60)
     624                            .dwattr $C$DW$72, DW_AT_decl_column(0x16)
     625                    $C$DW$73        .dwtag  DW_TAG_member
     626                            .dwattr $C$DW$73, DW_AT_type(*$C$DW$T$11)
     627                            .dwattr $C$DW$73, DW_AT_name("flags")
     628                            .dwattr $C$DW$73, DW_AT_TI_symbol_name("flags")
     629                            .dwattr $C$DW$73, DW_AT_data_member_location[DW_OP_plus_uconst 0x14]
     630                            .dwattr $C$DW$73, DW_AT_accessibility(DW_ACCESS_public)
     631                            .dwattr $C$DW$73, DW_AT_decl_file("C:/ti/ccsv6/tools/compiler/ti-cgt-arm_5.2.5/include/stdio.h
     632                            .dwattr $C$DW$73, DW_AT_decl_line(0x61)
     633                            .dwattr $C$DW$73, DW_AT_decl_column(0x16)
     634                            .dwendtag $C$DW$T$20
     635                    
     636                            .dwattr $C$DW$T$20, DW_AT_decl_file("C:/ti/ccsv6/tools/compiler/ti-cgt-arm_5.2.5/include/stdio
     637                            .dwattr $C$DW$T$20, DW_AT_decl_line(0x5b)
     638                            .dwattr $C$DW$T$20, DW_AT_decl_column(0x10)
     639                    $C$DW$T$63      .dwtag  DW_TAG_typedef, DW_AT_name("FILE")
     640                            .dwattr $C$DW$T$63, DW_AT_type(*$C$DW$T$20)
     641                            .dwattr $C$DW$T$63, DW_AT_language(DW_LANG_C)
TI ARM Assembler PC v5.2.5 Tue Apr 12 16:51:14 2016

Tools Copyright (c) 1996-2015 Texas Instruments Incorporated
Task_ReportData.asm                                                  PAGE   13

     642                            .dwattr $C$DW$T$63, DW_AT_decl_file("C:/ti/ccsv6/tools/compiler/ti-cgt-arm_5.2.5/include/stdio
     643                            .dwattr $C$DW$T$63, DW_AT_decl_line(0x62)
     644                            .dwattr $C$DW$T$63, DW_AT_decl_column(0x03)
     645                    
     646                    $C$DW$T$24      .dwtag  DW_TAG_structure_type
     647                            .dwattr $C$DW$T$24, DW_AT_name("HeapRegion")
     648                            .dwattr $C$DW$T$24, DW_AT_byte_size(0x08)
     649                    $C$DW$74        .dwtag  DW_TAG_member
     650                            .dwattr $C$DW$74, DW_AT_type(*$C$DW$T$22)
     651                            .dwattr $C$DW$74, DW_AT_name("pucStartAddress")
     652                            .dwattr $C$DW$74, DW_AT_TI_symbol_name("pucStartAddress")
     653                            .dwattr $C$DW$74, DW_AT_data_member_location[DW_OP_plus_uconst 0x0]
     654                            .dwattr $C$DW$74, DW_AT_accessibility(DW_ACCESS_public)
     655                            .dwattr $C$DW$74, DW_AT_decl_file("C:\Users\DreyCow\workspace\TI_ARM_Tiva_Projects_EECS_690_Sp
     656                            .dwattr $C$DW$74, DW_AT_decl_line(0x96)
     657                            .dwattr $C$DW$74, DW_AT_decl_column(0x0b)
     658                    $C$DW$75        .dwtag  DW_TAG_member
     659                            .dwattr $C$DW$75, DW_AT_type(*$C$DW$T$23)
     660                            .dwattr $C$DW$75, DW_AT_name("xSizeInBytes")
     661                            .dwattr $C$DW$75, DW_AT_TI_symbol_name("xSizeInBytes")
     662                            .dwattr $C$DW$75, DW_AT_data_member_location[DW_OP_plus_uconst 0x4]
     663                            .dwattr $C$DW$75, DW_AT_accessibility(DW_ACCESS_public)
     664                            .dwattr $C$DW$75, DW_AT_decl_file("C:\Users\DreyCow\workspace\TI_ARM_Tiva_Projects_EECS_690_Sp
     665                            .dwattr $C$DW$75, DW_AT_decl_line(0x97)
     666                            .dwattr $C$DW$75, DW_AT_decl_column(0x09)
     667                            .dwendtag $C$DW$T$24
     668                    
     669                            .dwattr $C$DW$T$24, DW_AT_decl_file("C:\Users\DreyCow\workspace\TI_ARM_Tiva_Projects_EECS_690_
     670                            .dwattr $C$DW$T$24, DW_AT_decl_line(0x94)
     671                            .dwattr $C$DW$T$24, DW_AT_decl_column(0x10)
     672                    $C$DW$T$64      .dwtag  DW_TAG_typedef, DW_AT_name("HeapRegion_t")
     673                            .dwattr $C$DW$T$64, DW_AT_type(*$C$DW$T$24)
     674                            .dwattr $C$DW$T$64, DW_AT_language(DW_LANG_C)
     675                            .dwattr $C$DW$T$64, DW_AT_decl_file("C:\Users\DreyCow\workspace\TI_ARM_Tiva_Projects_EECS_690_
     676                            .dwattr $C$DW$T$64, DW_AT_decl_line(0x98)
     677                            .dwattr $C$DW$T$64, DW_AT_decl_column(0x03)
     678                    $C$DW$T$2       .dwtag  DW_TAG_unspecified_type
     679                            .dwattr $C$DW$T$2, DW_AT_name("void")
     680                    $C$DW$T$3       .dwtag  DW_TAG_pointer_type
     681                            .dwattr $C$DW$T$3, DW_AT_type(*$C$DW$T$2)
     682                            .dwattr $C$DW$T$3, DW_AT_address_class(0x20)
     683                    $C$DW$T$65      .dwtag  DW_TAG_typedef, DW_AT_name("QueueHandle_t")
     684                            .dwattr $C$DW$T$65, DW_AT_type(*$C$DW$T$3)
     685                            .dwattr $C$DW$T$65, DW_AT_language(DW_LANG_C)
     686                            .dwattr $C$DW$T$65, DW_AT_decl_file("C:/Users/DreyCow/workspace/TI_ARM_Tiva_Projects_EECS_690_
     687                            .dwattr $C$DW$T$65, DW_AT_decl_line(0x58)
     688                            .dwattr $C$DW$T$65, DW_AT_decl_column(0x10)
     689                    $C$DW$T$66      .dwtag  DW_TAG_typedef, DW_AT_name("SemaphoreHandle_t")
     690                            .dwattr $C$DW$T$66, DW_AT_type(*$C$DW$T$65)
     691                            .dwattr $C$DW$T$66, DW_AT_language(DW_LANG_C)
     692                            .dwattr $C$DW$T$66, DW_AT_decl_file("C:/Users/DreyCow/workspace/TI_ARM_Tiva_Projects_EECS_690_
     693                            .dwattr $C$DW$T$66, DW_AT_decl_line(0x4f)
     694                            .dwattr $C$DW$T$66, DW_AT_decl_column(0x17)
     695                    $C$DW$T$73      .dwtag  DW_TAG_typedef, DW_AT_name("QueueSetHandle_t")
     696                            .dwattr $C$DW$T$73, DW_AT_type(*$C$DW$T$3)
TI ARM Assembler PC v5.2.5 Tue Apr 12 16:51:14 2016

Tools Copyright (c) 1996-2015 Texas Instruments Incorporated
Task_ReportData.asm                                                  PAGE   14

     697                            .dwattr $C$DW$T$73, DW_AT_language(DW_LANG_C)
     698                            .dwattr $C$DW$T$73, DW_AT_decl_file("C:/Users/DreyCow/workspace/TI_ARM_Tiva_Projects_EECS_690_
     699                            .dwattr $C$DW$T$73, DW_AT_decl_line(0x5f)
     700                            .dwattr $C$DW$T$73, DW_AT_decl_column(0x10)
     701                    $C$DW$T$74      .dwtag  DW_TAG_typedef, DW_AT_name("QueueSetMemberHandle_t")
     702                            .dwattr $C$DW$T$74, DW_AT_type(*$C$DW$T$3)
     703                            .dwattr $C$DW$T$74, DW_AT_language(DW_LANG_C)
     704                            .dwattr $C$DW$T$74, DW_AT_decl_file("C:/Users/DreyCow/workspace/TI_ARM_Tiva_Projects_EECS_690_
     705                            .dwattr $C$DW$T$74, DW_AT_decl_line(0x66)
     706                            .dwattr $C$DW$T$74, DW_AT_decl_column(0x10)
     707                    $C$DW$T$52      .dwtag  DW_TAG_typedef, DW_AT_name("TaskHandle_t")
     708                            .dwattr $C$DW$T$52, DW_AT_type(*$C$DW$T$3)
     709                            .dwattr $C$DW$T$52, DW_AT_language(DW_LANG_C)
     710                            .dwattr $C$DW$T$52, DW_AT_decl_file("C:/Users/DreyCow/workspace/TI_ARM_Tiva_Projects_EECS_690_
     711                            .dwattr $C$DW$T$52, DW_AT_decl_line(0x67)
     712                            .dwattr $C$DW$T$52, DW_AT_decl_column(0x10)
     713                    $C$DW$T$75      .dwtag  DW_TAG_const_type
     714                            .dwattr $C$DW$T$75, DW_AT_type(*$C$DW$T$3)
     715                    
     716                    $C$DW$T$40      .dwtag  DW_TAG_subroutine_type
     717                            .dwattr $C$DW$T$40, DW_AT_language(DW_LANG_C)
     718                    $C$DW$76        .dwtag  DW_TAG_formal_parameter
     719                            .dwattr $C$DW$76, DW_AT_type(*$C$DW$T$3)
     720                            .dwendtag $C$DW$T$40
     721                    
     722                    $C$DW$T$41      .dwtag  DW_TAG_pointer_type
     723                            .dwattr $C$DW$T$41, DW_AT_type(*$C$DW$T$40)
     724                            .dwattr $C$DW$T$41, DW_AT_address_class(0x20)
     725                    $C$DW$T$42      .dwtag  DW_TAG_typedef, DW_AT_name("TaskFunction_t")
     726                            .dwattr $C$DW$T$42, DW_AT_type(*$C$DW$T$41)
     727                            .dwattr $C$DW$T$42, DW_AT_language(DW_LANG_C)
     728                            .dwattr $C$DW$T$42, DW_AT_decl_file("C:\Users\DreyCow\workspace\TI_ARM_Tiva_Projects_EECS_690_
     729                            .dwattr $C$DW$T$42, DW_AT_decl_line(0x4d)
     730                            .dwattr $C$DW$T$42, DW_AT_decl_column(0x10)
     731                    $C$DW$T$81      .dwtag  DW_TAG_const_type
     732                            .dwattr $C$DW$T$81, DW_AT_type(*$C$DW$T$2)
     733                    $C$DW$T$82      .dwtag  DW_TAG_pointer_type
     734                            .dwattr $C$DW$T$82, DW_AT_type(*$C$DW$T$81)
     735                            .dwattr $C$DW$T$82, DW_AT_address_class(0x20)
     736                    $C$DW$T$83      .dwtag  DW_TAG_const_type
     737                            .dwattr $C$DW$T$83, DW_AT_type(*$C$DW$T$82)
     738                    $C$DW$T$4       .dwtag  DW_TAG_base_type
     739                            .dwattr $C$DW$T$4, DW_AT_encoding(DW_ATE_boolean)
     740                            .dwattr $C$DW$T$4, DW_AT_name("bool")
     741                            .dwattr $C$DW$T$4, DW_AT_byte_size(0x01)
     742                    $C$DW$T$5       .dwtag  DW_TAG_base_type
     743                            .dwattr $C$DW$T$5, DW_AT_encoding(DW_ATE_signed_char)
     744                            .dwattr $C$DW$T$5, DW_AT_name("signed char")
     745                            .dwattr $C$DW$T$5, DW_AT_byte_size(0x01)
     746                    $C$DW$T$84      .dwtag  DW_TAG_typedef, DW_AT_name("int8_t")
     747                            .dwattr $C$DW$T$84, DW_AT_type(*$C$DW$T$5)
     748                            .dwattr $C$DW$T$84, DW_AT_language(DW_LANG_C)
     749                            .dwattr $C$DW$T$84, DW_AT_decl_file("C:/ti/ccsv6/tools/compiler/ti-cgt-arm_5.2.5/include/stdin
     750                            .dwattr $C$DW$T$84, DW_AT_decl_line(0x2a)
     751                            .dwattr $C$DW$T$84, DW_AT_decl_column(0x1d)
TI ARM Assembler PC v5.2.5 Tue Apr 12 16:51:14 2016

Tools Copyright (c) 1996-2015 Texas Instruments Incorporated
Task_ReportData.asm                                                  PAGE   15

     752                    $C$DW$T$85      .dwtag  DW_TAG_typedef, DW_AT_name("int_least8_t")
     753                            .dwattr $C$DW$T$85, DW_AT_type(*$C$DW$T$84)
     754                            .dwattr $C$DW$T$85, DW_AT_language(DW_LANG_C)
     755                            .dwattr $C$DW$T$85, DW_AT_decl_file("C:/ti/ccsv6/tools/compiler/ti-cgt-arm_5.2.5/include/stdin
     756                            .dwattr $C$DW$T$85, DW_AT_decl_line(0x37)
     757                            .dwattr $C$DW$T$85, DW_AT_decl_column(0x17)
     758                    $C$DW$T$6       .dwtag  DW_TAG_base_type
     759                            .dwattr $C$DW$T$6, DW_AT_encoding(DW_ATE_unsigned_char)
     760                            .dwattr $C$DW$T$6, DW_AT_name("unsigned char")
     761                            .dwattr $C$DW$T$6, DW_AT_byte_size(0x01)
     762                    $C$DW$T$19      .dwtag  DW_TAG_pointer_type
     763                            .dwattr $C$DW$T$19, DW_AT_type(*$C$DW$T$6)
     764                            .dwattr $C$DW$T$19, DW_AT_address_class(0x20)
     765                    $C$DW$T$21      .dwtag  DW_TAG_typedef, DW_AT_name("uint8_t")
     766                            .dwattr $C$DW$T$21, DW_AT_type(*$C$DW$T$6)
     767                            .dwattr $C$DW$T$21, DW_AT_language(DW_LANG_C)
     768                            .dwattr $C$DW$T$21, DW_AT_decl_file("C:/ti/ccsv6/tools/compiler/ti-cgt-arm_5.2.5/include/stdin
     769                            .dwattr $C$DW$T$21, DW_AT_decl_line(0x2b)
     770                            .dwattr $C$DW$T$21, DW_AT_decl_column(0x1c)
     771                    $C$DW$T$22      .dwtag  DW_TAG_pointer_type
     772                            .dwattr $C$DW$T$22, DW_AT_type(*$C$DW$T$21)
     773                            .dwattr $C$DW$T$22, DW_AT_address_class(0x20)
     774                    $C$DW$T$86      .dwtag  DW_TAG_typedef, DW_AT_name("portCHAR")
     775                            .dwattr $C$DW$T$86, DW_AT_type(*$C$DW$T$21)
     776                            .dwattr $C$DW$T$86, DW_AT_language(DW_LANG_C)
     777                            .dwattr $C$DW$T$86, DW_AT_decl_file("C:/Users/DreyCow/workspace/TI_ARM_Tiva_Projects_EECS_690_
     778                            .dwattr $C$DW$T$86, DW_AT_decl_line(0x60)
     779                            .dwattr $C$DW$T$86, DW_AT_decl_column(0x12)
     780                    $C$DW$T$67      .dwtag  DW_TAG_const_type
     781                            .dwattr $C$DW$T$67, DW_AT_type(*$C$DW$T$21)
     782                    $C$DW$T$87      .dwtag  DW_TAG_typedef, DW_AT_name("uint_least8_t")
     783                            .dwattr $C$DW$T$87, DW_AT_type(*$C$DW$T$21)
     784                            .dwattr $C$DW$T$87, DW_AT_language(DW_LANG_C)
     785                            .dwattr $C$DW$T$87, DW_AT_decl_file("C:/ti/ccsv6/tools/compiler/ti-cgt-arm_5.2.5/include/stdin
     786                            .dwattr $C$DW$T$87, DW_AT_decl_line(0x38)
     787                            .dwattr $C$DW$T$87, DW_AT_decl_column(0x16)
     788                    $C$DW$T$7       .dwtag  DW_TAG_base_type
     789                            .dwattr $C$DW$T$7, DW_AT_encoding(DW_ATE_signed_char)
     790                            .dwattr $C$DW$T$7, DW_AT_name("wchar_t")
     791                            .dwattr $C$DW$T$7, DW_AT_byte_size(0x02)
     792                    $C$DW$T$8       .dwtag  DW_TAG_base_type
     793                            .dwattr $C$DW$T$8, DW_AT_encoding(DW_ATE_signed)
     794                            .dwattr $C$DW$T$8, DW_AT_name("short")
     795                            .dwattr $C$DW$T$8, DW_AT_byte_size(0x02)
     796                    $C$DW$T$88      .dwtag  DW_TAG_typedef, DW_AT_name("int16_t")
     797                            .dwattr $C$DW$T$88, DW_AT_type(*$C$DW$T$8)
     798                            .dwattr $C$DW$T$88, DW_AT_language(DW_LANG_C)
     799                            .dwattr $C$DW$T$88, DW_AT_decl_file("C:/ti/ccsv6/tools/compiler/ti-cgt-arm_5.2.5/include/stdin
     800                            .dwattr $C$DW$T$88, DW_AT_decl_line(0x2c)
     801                            .dwattr $C$DW$T$88, DW_AT_decl_column(0x1d)
     802                    $C$DW$T$89      .dwtag  DW_TAG_typedef, DW_AT_name("int_least16_t")
     803                            .dwattr $C$DW$T$89, DW_AT_type(*$C$DW$T$88)
     804                            .dwattr $C$DW$T$89, DW_AT_language(DW_LANG_C)
     805                            .dwattr $C$DW$T$89, DW_AT_decl_file("C:/ti/ccsv6/tools/compiler/ti-cgt-arm_5.2.5/include/stdin
     806                            .dwattr $C$DW$T$89, DW_AT_decl_line(0x3a)
TI ARM Assembler PC v5.2.5 Tue Apr 12 16:51:14 2016

Tools Copyright (c) 1996-2015 Texas Instruments Incorporated
Task_ReportData.asm                                                  PAGE   16

     807                            .dwattr $C$DW$T$89, DW_AT_decl_column(0x17)
     808                    $C$DW$T$90      .dwtag  DW_TAG_typedef, DW_AT_name("portSHORT")
     809                            .dwattr $C$DW$T$90, DW_AT_type(*$C$DW$T$88)
     810                            .dwattr $C$DW$T$90, DW_AT_language(DW_LANG_C)
     811                            .dwattr $C$DW$T$90, DW_AT_decl_file("C:/Users/DreyCow/workspace/TI_ARM_Tiva_Projects_EECS_690_
     812                            .dwattr $C$DW$T$90, DW_AT_decl_line(0x64)
     813                            .dwattr $C$DW$T$90, DW_AT_decl_column(0x12)
     814                    $C$DW$T$9       .dwtag  DW_TAG_base_type
     815                            .dwattr $C$DW$T$9, DW_AT_encoding(DW_ATE_unsigned)
     816                            .dwattr $C$DW$T$9, DW_AT_name("unsigned short")
     817                            .dwattr $C$DW$T$9, DW_AT_byte_size(0x02)
     818                    $C$DW$T$91      .dwtag  DW_TAG_typedef, DW_AT_name("_Wchart")
     819                            .dwattr $C$DW$T$91, DW_AT_type(*$C$DW$T$9)
     820                            .dwattr $C$DW$T$91, DW_AT_language(DW_LANG_C)
     821                            .dwattr $C$DW$T$91, DW_AT_decl_file("C:/ti/ccsv6/tools/compiler/ti-cgt-arm_5.2.5/include/yvals
     822                            .dwattr $C$DW$T$91, DW_AT_decl_line(0x1e5)
     823                            .dwattr $C$DW$T$91, DW_AT_decl_column(0x21)
     824                    $C$DW$T$92      .dwtag  DW_TAG_typedef, DW_AT_name("_Wintt")
     825                            .dwattr $C$DW$T$92, DW_AT_type(*$C$DW$T$9)
     826                            .dwattr $C$DW$T$92, DW_AT_language(DW_LANG_C)
     827                            .dwattr $C$DW$T$92, DW_AT_decl_file("C:/ti/ccsv6/tools/compiler/ti-cgt-arm_5.2.5/include/yvals
     828                            .dwattr $C$DW$T$92, DW_AT_decl_line(0x1e6)
     829                            .dwattr $C$DW$T$92, DW_AT_decl_column(0x21)
     830                    $C$DW$T$46      .dwtag  DW_TAG_typedef, DW_AT_name("uint16_t")
     831                            .dwattr $C$DW$T$46, DW_AT_type(*$C$DW$T$9)
     832                            .dwattr $C$DW$T$46, DW_AT_language(DW_LANG_C)
     833                            .dwattr $C$DW$T$46, DW_AT_decl_file("C:/ti/ccsv6/tools/compiler/ti-cgt-arm_5.2.5/include/stdin
     834                            .dwattr $C$DW$T$46, DW_AT_decl_line(0x2d)
     835                            .dwattr $C$DW$T$46, DW_AT_decl_column(0x1c)
     836                    $C$DW$T$93      .dwtag  DW_TAG_typedef, DW_AT_name("uint_least16_t")
     837                            .dwattr $C$DW$T$93, DW_AT_type(*$C$DW$T$46)
     838                            .dwattr $C$DW$T$93, DW_AT_language(DW_LANG_C)
     839                            .dwattr $C$DW$T$93, DW_AT_decl_file("C:/ti/ccsv6/tools/compiler/ti-cgt-arm_5.2.5/include/stdin
     840                            .dwattr $C$DW$T$93, DW_AT_decl_line(0x3b)
     841                            .dwattr $C$DW$T$93, DW_AT_decl_column(0x16)
     842                    $C$DW$T$94      .dwtag  DW_TAG_typedef, DW_AT_name("wchar_t")
     843                            .dwattr $C$DW$T$94, DW_AT_type(*$C$DW$T$9)
     844                            .dwattr $C$DW$T$94, DW_AT_language(DW_LANG_C)
     845                            .dwattr $C$DW$T$94, DW_AT_decl_file("C:/ti/ccsv6/tools/compiler/ti-cgt-arm_5.2.5/include/stdde
     846                            .dwattr $C$DW$T$94, DW_AT_decl_line(0x41)
     847                            .dwattr $C$DW$T$94, DW_AT_decl_column(0x1a)
     848                    $C$DW$T$10      .dwtag  DW_TAG_base_type
     849                            .dwattr $C$DW$T$10, DW_AT_encoding(DW_ATE_signed)
     850                            .dwattr $C$DW$T$10, DW_AT_name("int")
     851                            .dwattr $C$DW$T$10, DW_AT_byte_size(0x04)
     852                    $C$DW$T$95      .dwtag  DW_TAG_typedef, DW_AT_name("_Ptrdifft")
     853                            .dwattr $C$DW$T$95, DW_AT_type(*$C$DW$T$10)
     854                            .dwattr $C$DW$T$95, DW_AT_language(DW_LANG_C)
     855                            .dwattr $C$DW$T$95, DW_AT_decl_file("C:/ti/ccsv6/tools/compiler/ti-cgt-arm_5.2.5/include/yvals
     856                            .dwattr $C$DW$T$95, DW_AT_decl_line(0xa9)
     857                            .dwattr $C$DW$T$95, DW_AT_decl_column(0x1e)
     858                    $C$DW$T$56      .dwtag  DW_TAG_typedef, DW_AT_name("int32_t")
     859                            .dwattr $C$DW$T$56, DW_AT_type(*$C$DW$T$10)
     860                            .dwattr $C$DW$T$56, DW_AT_language(DW_LANG_C)
     861                            .dwattr $C$DW$T$56, DW_AT_decl_file("C:/ti/ccsv6/tools/compiler/ti-cgt-arm_5.2.5/include/stdin
TI ARM Assembler PC v5.2.5 Tue Apr 12 16:51:14 2016

Tools Copyright (c) 1996-2015 Texas Instruments Incorporated
Task_ReportData.asm                                                  PAGE   17

     862                            .dwattr $C$DW$T$56, DW_AT_decl_line(0x2e)
     863                            .dwattr $C$DW$T$56, DW_AT_decl_column(0x1d)
     864                    $C$DW$T$57      .dwtag  DW_TAG_typedef, DW_AT_name("BaseType_t")
     865                            .dwattr $C$DW$T$57, DW_AT_type(*$C$DW$T$56)
     866                            .dwattr $C$DW$T$57, DW_AT_language(DW_LANG_C)
     867                            .dwattr $C$DW$T$57, DW_AT_decl_file("C:/Users/DreyCow/workspace/TI_ARM_Tiva_Projects_EECS_690_
     868                            .dwattr $C$DW$T$57, DW_AT_decl_line(0x69)
     869                            .dwattr $C$DW$T$57, DW_AT_decl_column(0x12)
     870                    $C$DW$T$101     .dwtag  DW_TAG_const_type
     871                            .dwattr $C$DW$T$101, DW_AT_type(*$C$DW$T$57)
     872                    
     873                    $C$DW$T$106     .dwtag  DW_TAG_subroutine_type
     874                            .dwattr $C$DW$T$106, DW_AT_type(*$C$DW$T$57)
     875                            .dwattr $C$DW$T$106, DW_AT_language(DW_LANG_C)
     876                    $C$DW$77        .dwtag  DW_TAG_formal_parameter
     877                            .dwattr $C$DW$77, DW_AT_type(*$C$DW$T$3)
     878                            .dwendtag $C$DW$T$106
     879                    
     880                    $C$DW$T$107     .dwtag  DW_TAG_pointer_type
     881                            .dwattr $C$DW$T$107, DW_AT_type(*$C$DW$T$106)
     882                            .dwattr $C$DW$T$107, DW_AT_address_class(0x20)
     883                    $C$DW$T$108     .dwtag  DW_TAG_typedef, DW_AT_name("TaskHookFunction_t")
     884                            .dwattr $C$DW$T$108, DW_AT_type(*$C$DW$T$107)
     885                            .dwattr $C$DW$T$108, DW_AT_language(DW_LANG_C)
     886                            .dwattr $C$DW$T$108, DW_AT_decl_file("C:/Users/DreyCow/workspace/TI_ARM_Tiva_Projects_EECS_690
     887                            .dwattr $C$DW$T$108, DW_AT_decl_line(0x6d)
     888                            .dwattr $C$DW$T$108, DW_AT_decl_column(0x16)
     889                    $C$DW$T$109     .dwtag  DW_TAG_typedef, DW_AT_name("int_fast16_t")
     890                            .dwattr $C$DW$T$109, DW_AT_type(*$C$DW$T$56)
     891                            .dwattr $C$DW$T$109, DW_AT_language(DW_LANG_C)
     892                            .dwattr $C$DW$T$109, DW_AT_decl_file("C:/ti/ccsv6/tools/compiler/ti-cgt-arm_5.2.5/include/stdi
     893                            .dwattr $C$DW$T$109, DW_AT_decl_line(0x47)
     894                            .dwattr $C$DW$T$109, DW_AT_decl_column(0x17)
     895                    $C$DW$T$110     .dwtag  DW_TAG_typedef, DW_AT_name("int_fast32_t")
     896                            .dwattr $C$DW$T$110, DW_AT_type(*$C$DW$T$56)
     897                            .dwattr $C$DW$T$110, DW_AT_language(DW_LANG_C)
     898                            .dwattr $C$DW$T$110, DW_AT_decl_file("C:/ti/ccsv6/tools/compiler/ti-cgt-arm_5.2.5/include/stdi
     899                            .dwattr $C$DW$T$110, DW_AT_decl_line(0x4a)
     900                            .dwattr $C$DW$T$110, DW_AT_decl_column(0x17)
     901                    $C$DW$T$111     .dwtag  DW_TAG_typedef, DW_AT_name("int_fast8_t")
     902                            .dwattr $C$DW$T$111, DW_AT_type(*$C$DW$T$56)
     903                            .dwattr $C$DW$T$111, DW_AT_language(DW_LANG_C)
     904                            .dwattr $C$DW$T$111, DW_AT_decl_file("C:/ti/ccsv6/tools/compiler/ti-cgt-arm_5.2.5/include/stdi
     905                            .dwattr $C$DW$T$111, DW_AT_decl_line(0x45)
     906                            .dwattr $C$DW$T$111, DW_AT_decl_column(0x17)
     907                    $C$DW$T$112     .dwtag  DW_TAG_typedef, DW_AT_name("int_least32_t")
     908                            .dwattr $C$DW$T$112, DW_AT_type(*$C$DW$T$56)
     909                            .dwattr $C$DW$T$112, DW_AT_language(DW_LANG_C)
     910                            .dwattr $C$DW$T$112, DW_AT_decl_file("C:/ti/ccsv6/tools/compiler/ti-cgt-arm_5.2.5/include/stdi
     911                            .dwattr $C$DW$T$112, DW_AT_decl_line(0x3c)
     912                            .dwattr $C$DW$T$112, DW_AT_decl_column(0x17)
     913                    $C$DW$T$113     .dwtag  DW_TAG_typedef, DW_AT_name("portBASE_TYPE")
     914                            .dwattr $C$DW$T$113, DW_AT_type(*$C$DW$T$56)
     915                            .dwattr $C$DW$T$113, DW_AT_language(DW_LANG_C)
     916                            .dwattr $C$DW$T$113, DW_AT_decl_file("C:/Users/DreyCow/workspace/TI_ARM_Tiva_Projects_EECS_690
TI ARM Assembler PC v5.2.5 Tue Apr 12 16:51:14 2016

Tools Copyright (c) 1996-2015 Texas Instruments Incorporated
Task_ReportData.asm                                                  PAGE   18

     917                            .dwattr $C$DW$T$113, DW_AT_decl_line(0x66)
     918                            .dwattr $C$DW$T$113, DW_AT_decl_column(0x12)
     919                    $C$DW$T$114     .dwtag  DW_TAG_typedef, DW_AT_name("portLONG")
     920                            .dwattr $C$DW$T$114, DW_AT_type(*$C$DW$T$56)
     921                            .dwattr $C$DW$T$114, DW_AT_language(DW_LANG_C)
     922                            .dwattr $C$DW$T$114, DW_AT_decl_file("C:/Users/DreyCow/workspace/TI_ARM_Tiva_Projects_EECS_690
     923                            .dwattr $C$DW$T$114, DW_AT_decl_line(0x63)
     924                            .dwattr $C$DW$T$114, DW_AT_decl_column(0x12)
     925                    $C$DW$T$115     .dwtag  DW_TAG_typedef, DW_AT_name("intptr_t")
     926                            .dwattr $C$DW$T$115, DW_AT_type(*$C$DW$T$10)
     927                            .dwattr $C$DW$T$115, DW_AT_language(DW_LANG_C)
     928                            .dwattr $C$DW$T$115, DW_AT_decl_file("C:/ti/ccsv6/tools/compiler/ti-cgt-arm_5.2.5/include/stdi
     929                            .dwattr $C$DW$T$115, DW_AT_decl_line(0x52)
     930                            .dwattr $C$DW$T$115, DW_AT_decl_column(0x1a)
     931                    $C$DW$T$116     .dwtag  DW_TAG_typedef, DW_AT_name("ptrdiff_t")
     932                            .dwattr $C$DW$T$116, DW_AT_type(*$C$DW$T$10)
     933                            .dwattr $C$DW$T$116, DW_AT_language(DW_LANG_C)
     934                            .dwattr $C$DW$T$116, DW_AT_decl_file("C:/ti/ccsv6/tools/compiler/ti-cgt-arm_5.2.5/include/stdd
     935                            .dwattr $C$DW$T$116, DW_AT_decl_line(0x36)
     936                            .dwattr $C$DW$T$116, DW_AT_decl_column(0x1c)
     937                    $C$DW$T$11      .dwtag  DW_TAG_base_type
     938                            .dwattr $C$DW$T$11, DW_AT_encoding(DW_ATE_unsigned)
     939                            .dwattr $C$DW$T$11, DW_AT_name("unsigned int")
     940                            .dwattr $C$DW$T$11, DW_AT_byte_size(0x04)
     941                    $C$DW$T$117     .dwtag  DW_TAG_typedef, DW_AT_name("_Sizet")
     942                            .dwattr $C$DW$T$117, DW_AT_type(*$C$DW$T$11)
     943                            .dwattr $C$DW$T$117, DW_AT_language(DW_LANG_C)
     944                            .dwattr $C$DW$T$117, DW_AT_decl_file("C:/ti/ccsv6/tools/compiler/ti-cgt-arm_5.2.5/include/yval
     945                            .dwattr $C$DW$T$117, DW_AT_decl_line(0xab)
     946                            .dwattr $C$DW$T$117, DW_AT_decl_column(0x1a)
     947                    $C$DW$T$23      .dwtag  DW_TAG_typedef, DW_AT_name("size_t")
     948                            .dwattr $C$DW$T$23, DW_AT_type(*$C$DW$T$11)
     949                            .dwattr $C$DW$T$23, DW_AT_language(DW_LANG_C)
     950                            .dwattr $C$DW$T$23, DW_AT_decl_file("C:/ti/ccsv6/tools/compiler/ti-cgt-arm_5.2.5/include/stdde
     951                            .dwattr $C$DW$T$23, DW_AT_decl_line(0x3a)
     952                            .dwattr $C$DW$T$23, DW_AT_decl_column(0x19)
     953                    $C$DW$T$28      .dwtag  DW_TAG_typedef, DW_AT_name("uint32_t")
     954                            .dwattr $C$DW$T$28, DW_AT_type(*$C$DW$T$11)
     955                            .dwattr $C$DW$T$28, DW_AT_language(DW_LANG_C)
     956                            .dwattr $C$DW$T$28, DW_AT_decl_file("C:/ti/ccsv6/tools/compiler/ti-cgt-arm_5.2.5/include/stdin
     957                            .dwattr $C$DW$T$28, DW_AT_decl_line(0x2f)
     958                            .dwattr $C$DW$T$28, DW_AT_decl_column(0x1c)
     959                    $C$DW$T$47      .dwtag  DW_TAG_typedef, DW_AT_name("StackType_t")
     960                            .dwattr $C$DW$T$47, DW_AT_type(*$C$DW$T$28)
     961                            .dwattr $C$DW$T$47, DW_AT_language(DW_LANG_C)
     962                            .dwattr $C$DW$T$47, DW_AT_decl_file("C:/Users/DreyCow/workspace/TI_ARM_Tiva_Projects_EECS_690_
     963                            .dwattr $C$DW$T$47, DW_AT_decl_line(0x68)
     964                            .dwattr $C$DW$T$47, DW_AT_decl_column(0x12)
     965                    $C$DW$T$48      .dwtag  DW_TAG_pointer_type
     966                            .dwattr $C$DW$T$48, DW_AT_type(*$C$DW$T$47)
     967                            .dwattr $C$DW$T$48, DW_AT_address_class(0x20)
     968                    $C$DW$T$35      .dwtag  DW_TAG_typedef, DW_AT_name("TickType_t")
     969                            .dwattr $C$DW$T$35, DW_AT_type(*$C$DW$T$28)
     970                            .dwattr $C$DW$T$35, DW_AT_language(DW_LANG_C)
     971                            .dwattr $C$DW$T$35, DW_AT_decl_file("C:/Users/DreyCow/workspace/TI_ARM_Tiva_Projects_EECS_690_
TI ARM Assembler PC v5.2.5 Tue Apr 12 16:51:14 2016

Tools Copyright (c) 1996-2015 Texas Instruments Incorporated
Task_ReportData.asm                                                  PAGE   19

     972                            .dwattr $C$DW$T$35, DW_AT_decl_line(0x70)
     973                            .dwattr $C$DW$T$35, DW_AT_decl_column(0x13)
     974                    $C$DW$T$76      .dwtag  DW_TAG_const_type
     975                            .dwattr $C$DW$T$76, DW_AT_type(*$C$DW$T$35)
     976                    $C$DW$T$30      .dwtag  DW_TAG_typedef, DW_AT_name("UBaseType_t")
     977                            .dwattr $C$DW$T$30, DW_AT_type(*$C$DW$T$28)
     978                            .dwattr $C$DW$T$30, DW_AT_language(DW_LANG_C)
     979                            .dwattr $C$DW$T$30, DW_AT_decl_file("C:/Users/DreyCow/workspace/TI_ARM_Tiva_Projects_EECS_690_
     980                            .dwattr $C$DW$T$30, DW_AT_decl_line(0x6a)
     981                            .dwattr $C$DW$T$30, DW_AT_decl_column(0x12)
     982                    $C$DW$T$70      .dwtag  DW_TAG_const_type
     983                            .dwattr $C$DW$T$70, DW_AT_type(*$C$DW$T$30)
     984                    $C$DW$T$118     .dwtag  DW_TAG_typedef, DW_AT_name("portSTACK_TYPE")
     985                            .dwattr $C$DW$T$118, DW_AT_type(*$C$DW$T$28)
     986                            .dwattr $C$DW$T$118, DW_AT_language(DW_LANG_C)
     987                            .dwattr $C$DW$T$118, DW_AT_decl_file("C:/Users/DreyCow/workspace/TI_ARM_Tiva_Projects_EECS_690
     988                            .dwattr $C$DW$T$118, DW_AT_decl_line(0x65)
     989                            .dwattr $C$DW$T$118, DW_AT_decl_column(0x12)
     990                    $C$DW$T$119     .dwtag  DW_TAG_typedef, DW_AT_name("uint_fast16_t")
     991                            .dwattr $C$DW$T$119, DW_AT_type(*$C$DW$T$28)
     992                            .dwattr $C$DW$T$119, DW_AT_language(DW_LANG_C)
     993                            .dwattr $C$DW$T$119, DW_AT_decl_file("C:/ti/ccsv6/tools/compiler/ti-cgt-arm_5.2.5/include/stdi
     994                            .dwattr $C$DW$T$119, DW_AT_decl_line(0x48)
     995                            .dwattr $C$DW$T$119, DW_AT_decl_column(0x16)
     996                    $C$DW$T$120     .dwtag  DW_TAG_typedef, DW_AT_name("uint_fast32_t")
     997                            .dwattr $C$DW$T$120, DW_AT_type(*$C$DW$T$28)
     998                            .dwattr $C$DW$T$120, DW_AT_language(DW_LANG_C)
     999                            .dwattr $C$DW$T$120, DW_AT_decl_file("C:/ti/ccsv6/tools/compiler/ti-cgt-arm_5.2.5/include/stdi
    1000                            .dwattr $C$DW$T$120, DW_AT_decl_line(0x4b)
    1001                            .dwattr $C$DW$T$120, DW_AT_decl_column(0x16)
    1002                    $C$DW$T$121     .dwtag  DW_TAG_typedef, DW_AT_name("uint_fast8_t")
    1003                            .dwattr $C$DW$T$121, DW_AT_type(*$C$DW$T$28)
    1004                            .dwattr $C$DW$T$121, DW_AT_language(DW_LANG_C)
    1005                            .dwattr $C$DW$T$121, DW_AT_decl_file("C:/ti/ccsv6/tools/compiler/ti-cgt-arm_5.2.5/include/stdi
    1006                            .dwattr $C$DW$T$121, DW_AT_decl_line(0x46)
    1007                            .dwattr $C$DW$T$121, DW_AT_decl_column(0x16)
    1008                    $C$DW$T$122     .dwtag  DW_TAG_typedef, DW_AT_name("uint_least32_t")
    1009                            .dwattr $C$DW$T$122, DW_AT_type(*$C$DW$T$28)
    1010                            .dwattr $C$DW$T$122, DW_AT_language(DW_LANG_C)
    1011                            .dwattr $C$DW$T$122, DW_AT_decl_file("C:/ti/ccsv6/tools/compiler/ti-cgt-arm_5.2.5/include/stdi
    1012                            .dwattr $C$DW$T$122, DW_AT_decl_line(0x3d)
    1013                            .dwattr $C$DW$T$122, DW_AT_decl_column(0x16)
    1014                    $C$DW$T$123     .dwtag  DW_TAG_typedef, DW_AT_name("uintptr_t")
    1015                            .dwattr $C$DW$T$123, DW_AT_type(*$C$DW$T$11)
    1016                            .dwattr $C$DW$T$123, DW_AT_language(DW_LANG_C)
    1017                            .dwattr $C$DW$T$123, DW_AT_decl_file("C:/ti/ccsv6/tools/compiler/ti-cgt-arm_5.2.5/include/stdi
    1018                            .dwattr $C$DW$T$123, DW_AT_decl_line(0x53)
    1019                            .dwattr $C$DW$T$123, DW_AT_decl_column(0x1a)
    1020                    $C$DW$T$12      .dwtag  DW_TAG_base_type
    1021                            .dwattr $C$DW$T$12, DW_AT_encoding(DW_ATE_signed)
    1022                            .dwattr $C$DW$T$12, DW_AT_name("long")
    1023                            .dwattr $C$DW$T$12, DW_AT_byte_size(0x04)
    1024                    $C$DW$T$124     .dwtag  DW_TAG_typedef, DW_AT_name("_Int32t")
    1025                            .dwattr $C$DW$T$124, DW_AT_type(*$C$DW$T$12)
    1026                            .dwattr $C$DW$T$124, DW_AT_language(DW_LANG_C)
TI ARM Assembler PC v5.2.5 Tue Apr 12 16:51:14 2016

Tools Copyright (c) 1996-2015 Texas Instruments Incorporated
Task_ReportData.asm                                                  PAGE   20

    1027                            .dwattr $C$DW$T$124, DW_AT_decl_file("C:/ti/ccsv6/tools/compiler/ti-cgt-arm_5.2.5/include/yval
    1028                            .dwattr $C$DW$T$124, DW_AT_decl_line(0xa6)
    1029                            .dwattr $C$DW$T$124, DW_AT_decl_column(0x0e)
    1030                    $C$DW$T$125     .dwtag  DW_TAG_typedef, DW_AT_name("fpos_t")
    1031                            .dwattr $C$DW$T$125, DW_AT_type(*$C$DW$T$12)
    1032                            .dwattr $C$DW$T$125, DW_AT_language(DW_LANG_C)
    1033                            .dwattr $C$DW$T$125, DW_AT_decl_file("C:/ti/ccsv6/tools/compiler/ti-cgt-arm_5.2.5/include/stdi
    1034                            .dwattr $C$DW$T$125, DW_AT_decl_line(0x6e)
    1035                            .dwattr $C$DW$T$125, DW_AT_decl_column(0x0e)
    1036                    $C$DW$T$13      .dwtag  DW_TAG_base_type
    1037                            .dwattr $C$DW$T$13, DW_AT_encoding(DW_ATE_unsigned)
    1038                            .dwattr $C$DW$T$13, DW_AT_name("unsigned long")
    1039                            .dwattr $C$DW$T$13, DW_AT_byte_size(0x04)
    1040                    $C$DW$T$126     .dwtag  DW_TAG_typedef, DW_AT_name("_Uint32t")
    1041                            .dwattr $C$DW$T$126, DW_AT_type(*$C$DW$T$13)
    1042                            .dwattr $C$DW$T$126, DW_AT_language(DW_LANG_C)
    1043                            .dwattr $C$DW$T$126, DW_AT_decl_file("C:/ti/ccsv6/tools/compiler/ti-cgt-arm_5.2.5/include/yval
    1044                            .dwattr $C$DW$T$126, DW_AT_decl_line(0xa7)
    1045                            .dwattr $C$DW$T$126, DW_AT_decl_column(0x17)
    1046                    $C$DW$T$14      .dwtag  DW_TAG_base_type
    1047                            .dwattr $C$DW$T$14, DW_AT_encoding(DW_ATE_signed)
    1048                            .dwattr $C$DW$T$14, DW_AT_name("long long")
    1049                            .dwattr $C$DW$T$14, DW_AT_byte_size(0x08)
    1050                    $C$DW$T$127     .dwtag  DW_TAG_typedef, DW_AT_name("_Longlong")
    1051                            .dwattr $C$DW$T$127, DW_AT_type(*$C$DW$T$14)
    1052                            .dwattr $C$DW$T$127, DW_AT_language(DW_LANG_C)
    1053                            .dwattr $C$DW$T$127, DW_AT_decl_file("C:/ti/ccsv6/tools/compiler/ti-cgt-arm_5.2.5/include/yval
    1054                            .dwattr $C$DW$T$127, DW_AT_decl_line(0x1b5)
    1055                            .dwattr $C$DW$T$127, DW_AT_decl_column(0x13)
    1056                    $C$DW$T$128     .dwtag  DW_TAG_typedef, DW_AT_name("int64_t")
    1057                            .dwattr $C$DW$T$128, DW_AT_type(*$C$DW$T$14)
    1058                            .dwattr $C$DW$T$128, DW_AT_language(DW_LANG_C)
    1059                            .dwattr $C$DW$T$128, DW_AT_decl_file("C:/ti/ccsv6/tools/compiler/ti-cgt-arm_5.2.5/include/stdi
    1060                            .dwattr $C$DW$T$128, DW_AT_decl_line(0x32)
    1061                            .dwattr $C$DW$T$128, DW_AT_decl_column(0x21)
    1062                    $C$DW$T$129     .dwtag  DW_TAG_typedef, DW_AT_name("int_fast64_t")
    1063                            .dwattr $C$DW$T$129, DW_AT_type(*$C$DW$T$128)
    1064                            .dwattr $C$DW$T$129, DW_AT_language(DW_LANG_C)
    1065                            .dwattr $C$DW$T$129, DW_AT_decl_file("C:/ti/ccsv6/tools/compiler/ti-cgt-arm_5.2.5/include/stdi
    1066                            .dwattr $C$DW$T$129, DW_AT_decl_line(0x4e)
    1067                            .dwattr $C$DW$T$129, DW_AT_decl_column(0x17)
    1068                    $C$DW$T$130     .dwtag  DW_TAG_typedef, DW_AT_name("int_least64_t")
    1069                            .dwattr $C$DW$T$130, DW_AT_type(*$C$DW$T$128)
    1070                            .dwattr $C$DW$T$130, DW_AT_language(DW_LANG_C)
    1071                            .dwattr $C$DW$T$130, DW_AT_decl_file("C:/ti/ccsv6/tools/compiler/ti-cgt-arm_5.2.5/include/stdi
    1072                            .dwattr $C$DW$T$130, DW_AT_decl_line(0x40)
    1073                            .dwattr $C$DW$T$130, DW_AT_decl_column(0x17)
    1074                    $C$DW$T$131     .dwtag  DW_TAG_typedef, DW_AT_name("portDOUBLE")
    1075                            .dwattr $C$DW$T$131, DW_AT_type(*$C$DW$T$128)
    1076                            .dwattr $C$DW$T$131, DW_AT_language(DW_LANG_C)
    1077                            .dwattr $C$DW$T$131, DW_AT_decl_file("C:/Users/DreyCow/workspace/TI_ARM_Tiva_Projects_EECS_690
    1078                            .dwattr $C$DW$T$131, DW_AT_decl_line(0x62)
    1079                            .dwattr $C$DW$T$131, DW_AT_decl_column(0x12)
    1080                    $C$DW$T$132     .dwtag  DW_TAG_typedef, DW_AT_name("intmax_t")
    1081                            .dwattr $C$DW$T$132, DW_AT_type(*$C$DW$T$14)
TI ARM Assembler PC v5.2.5 Tue Apr 12 16:51:14 2016

Tools Copyright (c) 1996-2015 Texas Instruments Incorporated
Task_ReportData.asm                                                  PAGE   21

    1082                            .dwattr $C$DW$T$132, DW_AT_language(DW_LANG_C)
    1083                            .dwattr $C$DW$T$132, DW_AT_decl_file("C:/ti/ccsv6/tools/compiler/ti-cgt-arm_5.2.5/include/stdi
    1084                            .dwattr $C$DW$T$132, DW_AT_decl_line(0x56)
    1085                            .dwattr $C$DW$T$132, DW_AT_decl_column(0x20)
    1086                    $C$DW$T$15      .dwtag  DW_TAG_base_type
    1087                            .dwattr $C$DW$T$15, DW_AT_encoding(DW_ATE_unsigned)
    1088                            .dwattr $C$DW$T$15, DW_AT_name("unsigned long long")
    1089                            .dwattr $C$DW$T$15, DW_AT_byte_size(0x08)
    1090                    $C$DW$T$133     .dwtag  DW_TAG_typedef, DW_AT_name("_ULonglong")
    1091                            .dwattr $C$DW$T$133, DW_AT_type(*$C$DW$T$15)
    1092                            .dwattr $C$DW$T$133, DW_AT_language(DW_LANG_C)
    1093                            .dwattr $C$DW$T$133, DW_AT_decl_file("C:/ti/ccsv6/tools/compiler/ti-cgt-arm_5.2.5/include/yval
    1094                            .dwattr $C$DW$T$133, DW_AT_decl_line(0x1b6)
    1095                            .dwattr $C$DW$T$133, DW_AT_decl_column(0x14)
    1096                    $C$DW$T$134     .dwtag  DW_TAG_typedef, DW_AT_name("uint64_t")
    1097                            .dwattr $C$DW$T$134, DW_AT_type(*$C$DW$T$15)
    1098                            .dwattr $C$DW$T$134, DW_AT_language(DW_LANG_C)
    1099                            .dwattr $C$DW$T$134, DW_AT_decl_file("C:/ti/ccsv6/tools/compiler/ti-cgt-arm_5.2.5/include/stdi
    1100                            .dwattr $C$DW$T$134, DW_AT_decl_line(0x33)
    1101                            .dwattr $C$DW$T$134, DW_AT_decl_column(0x20)
    1102                    $C$DW$T$135     .dwtag  DW_TAG_typedef, DW_AT_name("uint_fast64_t")
    1103                            .dwattr $C$DW$T$135, DW_AT_type(*$C$DW$T$134)
    1104                            .dwattr $C$DW$T$135, DW_AT_language(DW_LANG_C)
    1105                            .dwattr $C$DW$T$135, DW_AT_decl_file("C:/ti/ccsv6/tools/compiler/ti-cgt-arm_5.2.5/include/stdi
    1106                            .dwattr $C$DW$T$135, DW_AT_decl_line(0x4f)
    1107                            .dwattr $C$DW$T$135, DW_AT_decl_column(0x16)
    1108                    $C$DW$T$136     .dwtag  DW_TAG_typedef, DW_AT_name("uint_least64_t")
    1109                            .dwattr $C$DW$T$136, DW_AT_type(*$C$DW$T$134)
    1110                            .dwattr $C$DW$T$136, DW_AT_language(DW_LANG_C)
    1111                            .dwattr $C$DW$T$136, DW_AT_decl_file("C:/ti/ccsv6/tools/compiler/ti-cgt-arm_5.2.5/include/stdi
    1112                            .dwattr $C$DW$T$136, DW_AT_decl_line(0x41)
    1113                            .dwattr $C$DW$T$136, DW_AT_decl_column(0x16)
    1114                    $C$DW$T$137     .dwtag  DW_TAG_typedef, DW_AT_name("uintmax_t")
    1115                            .dwattr $C$DW$T$137, DW_AT_type(*$C$DW$T$15)
    1116                            .dwattr $C$DW$T$137, DW_AT_language(DW_LANG_C)
    1117                            .dwattr $C$DW$T$137, DW_AT_decl_file("C:/ti/ccsv6/tools/compiler/ti-cgt-arm_5.2.5/include/stdi
    1118                            .dwattr $C$DW$T$137, DW_AT_decl_line(0x57)
    1119                            .dwattr $C$DW$T$137, DW_AT_decl_column(0x20)
    1120                    $C$DW$T$16      .dwtag  DW_TAG_base_type
    1121                            .dwattr $C$DW$T$16, DW_AT_encoding(DW_ATE_float)
    1122                            .dwattr $C$DW$T$16, DW_AT_name("float")
    1123                            .dwattr $C$DW$T$16, DW_AT_byte_size(0x04)
    1124                    $C$DW$T$138     .dwtag  DW_TAG_typedef, DW_AT_name("portFLOAT")
    1125                            .dwattr $C$DW$T$138, DW_AT_type(*$C$DW$T$16)
    1126                            .dwattr $C$DW$T$138, DW_AT_language(DW_LANG_C)
    1127                            .dwattr $C$DW$T$138, DW_AT_decl_file("C:/Users/DreyCow/workspace/TI_ARM_Tiva_Projects_EECS_690
    1128                            .dwattr $C$DW$T$138, DW_AT_decl_line(0x61)
    1129                            .dwattr $C$DW$T$138, DW_AT_decl_column(0x10)
    1130                    $C$DW$T$17      .dwtag  DW_TAG_base_type
    1131                            .dwattr $C$DW$T$17, DW_AT_encoding(DW_ATE_float)
    1132                            .dwattr $C$DW$T$17, DW_AT_name("double")
    1133                            .dwattr $C$DW$T$17, DW_AT_byte_size(0x08)
    1134                    $C$DW$T$18      .dwtag  DW_TAG_base_type
    1135                            .dwattr $C$DW$T$18, DW_AT_encoding(DW_ATE_float)
    1136                            .dwattr $C$DW$T$18, DW_AT_name("long double")
TI ARM Assembler PC v5.2.5 Tue Apr 12 16:51:14 2016

Tools Copyright (c) 1996-2015 Texas Instruments Incorporated
Task_ReportData.asm                                                  PAGE   22

    1137                            .dwattr $C$DW$T$18, DW_AT_byte_size(0x08)
    1138                    $C$DW$T$139     .dwtag  DW_TAG_typedef, DW_AT_name("_Sysch_t")
    1139                            .dwattr $C$DW$T$139, DW_AT_type(*$C$DW$T$6)
    1140                            .dwattr $C$DW$T$139, DW_AT_language(DW_LANG_C)
    1141                            .dwattr $C$DW$T$139, DW_AT_decl_file("C:/ti/ccsv6/tools/compiler/ti-cgt-arm_5.2.5/include/yval
    1142                            .dwattr $C$DW$T$139, DW_AT_decl_line(0x218)
    1143                            .dwattr $C$DW$T$139, DW_AT_decl_column(0x0e)
    1144                    
    1145                    $C$DW$T$27      .dwtag  DW_TAG_array_type
    1146                            .dwattr $C$DW$T$27, DW_AT_type(*$C$DW$T$6)
    1147                            .dwattr $C$DW$T$27, DW_AT_language(DW_LANG_C)
    1148                            .dwattr $C$DW$T$27, DW_AT_byte_size(0x14)
    1149                    $C$DW$78        .dwtag  DW_TAG_subrange_type
    1150                            .dwattr $C$DW$78, DW_AT_upper_bound(0x13)
    1151                            .dwendtag $C$DW$T$27
    1152                    
    1153                    $C$DW$T$43      .dwtag  DW_TAG_const_type
    1154                            .dwattr $C$DW$T$43, DW_AT_type(*$C$DW$T$6)
    1155                    $C$DW$T$44      .dwtag  DW_TAG_pointer_type
    1156                            .dwattr $C$DW$T$44, DW_AT_type(*$C$DW$T$43)
    1157                            .dwattr $C$DW$T$44, DW_AT_address_class(0x20)
    1158                    $C$DW$T$45      .dwtag  DW_TAG_const_type
    1159                            .dwattr $C$DW$T$45, DW_AT_type(*$C$DW$T$44)
    1160                    $C$DW$T$98      .dwtag  DW_TAG_pointer_type
    1161                            .dwattr $C$DW$T$98, DW_AT_type(*$C$DW$T$6)
    1162                            .dwattr $C$DW$T$98, DW_AT_address_class(0x20)
    1163                    $C$DW$T$140     .dwtag  DW_TAG_typedef, DW_AT_name("__builtin_va_list")
    1164                            .dwattr $C$DW$T$140, DW_AT_type(*$C$DW$T$98)
    1165                            .dwattr $C$DW$T$140, DW_AT_language(DW_LANG_C)
    1166                            .dwattr $C$DW$T$140, DW_AT_decl_file("../Tasks/Task_ReportData.c")
    1167                            .dwattr $C$DW$T$140, DW_AT_decl_line(0x49)
    1168                            .dwattr $C$DW$T$140, DW_AT_decl_column(0x01)
    1169                    
    1170                    $C$DW$T$141     .dwtag  DW_TAG_array_type
    1171                            .dwattr $C$DW$T$141, DW_AT_type(*$C$DW$T$6)
    1172                            .dwattr $C$DW$T$141, DW_AT_language(DW_LANG_C)
    1173                            .dwattr $C$DW$T$141, DW_AT_byte_size(0x100)
    1174                    $C$DW$79        .dwtag  DW_TAG_subrange_type
    1175                            .dwattr $C$DW$79, DW_AT_upper_bound(0xff)
    1176                            .dwendtag $C$DW$T$141
    1177                    
    1178                    
    1179                    $C$DW$T$25      .dwtag  DW_TAG_structure_type
    1180                            .dwattr $C$DW$T$25, DW_AT_name("__va_list")
    1181                            .dwattr $C$DW$T$25, DW_AT_byte_size(0x04)
    1182                    $C$DW$80        .dwtag  DW_TAG_member
    1183                            .dwattr $C$DW$80, DW_AT_type(*$C$DW$T$3)
    1184                            .dwattr $C$DW$80, DW_AT_name("__ap")
    1185                            .dwattr $C$DW$80, DW_AT_TI_symbol_name("__ap")
    1186                            .dwattr $C$DW$80, DW_AT_data_member_location[DW_OP_plus_uconst 0x0]
    1187                            .dwattr $C$DW$80, DW_AT_accessibility(DW_ACCESS_public)
    1188                            .dwattr $C$DW$80, DW_AT_decl_file("C:/ti/ccsv6/tools/compiler/ti-cgt-arm_5.2.5/include/stdarg.
    1189                            .dwattr $C$DW$80, DW_AT_decl_line(0x36)
    1190                            .dwattr $C$DW$80, DW_AT_decl_column(0x0c)
    1191                            .dwendtag $C$DW$T$25
TI ARM Assembler PC v5.2.5 Tue Apr 12 16:51:14 2016

Tools Copyright (c) 1996-2015 Texas Instruments Incorporated
Task_ReportData.asm                                                  PAGE   23

    1192                    
    1193                            .dwattr $C$DW$T$25, DW_AT_decl_file("C:/ti/ccsv6/tools/compiler/ti-cgt-arm_5.2.5/include/stdar
    1194                            .dwattr $C$DW$T$25, DW_AT_decl_line(0x35)
    1195                            .dwattr $C$DW$T$25, DW_AT_decl_column(0x10)
    1196                    $C$DW$T$150     .dwtag  DW_TAG_typedef, DW_AT_name("va_list")
    1197                            .dwattr $C$DW$T$150, DW_AT_type(*$C$DW$T$25)
    1198                            .dwattr $C$DW$T$150, DW_AT_language(DW_LANG_C)
    1199                            .dwattr $C$DW$T$150, DW_AT_decl_file("C:/ti/ccsv6/tools/compiler/ti-cgt-arm_5.2.5/include/stda
    1200                            .dwattr $C$DW$T$150, DW_AT_decl_line(0x37)
    1201                            .dwattr $C$DW$T$150, DW_AT_decl_column(0x03)
    1202                    $C$DW$T$151     .dwtag  DW_TAG_typedef, DW_AT_name("_Va_list")
    1203                            .dwattr $C$DW$T$151, DW_AT_type(*$C$DW$T$150)
    1204                            .dwattr $C$DW$T$151, DW_AT_language(DW_LANG_C)
    1205                            .dwattr $C$DW$T$151, DW_AT_decl_file("C:/ti/ccsv6/tools/compiler/ti-cgt-arm_5.2.5/include/yval
    1206                            .dwattr $C$DW$T$151, DW_AT_decl_line(0x1f6)
    1207                            .dwattr $C$DW$T$151, DW_AT_decl_column(0x17)
    1208                    
    1209                    $C$DW$T$29      .dwtag  DW_TAG_structure_type
    1210                            .dwattr $C$DW$T$29, DW_AT_name("_dataPacket")
    1211                            .dwattr $C$DW$T$29, DW_AT_byte_size(0x20)
    1212                    $C$DW$81        .dwtag  DW_TAG_member
    1213                            .dwattr $C$DW$81, DW_AT_type(*$C$DW$T$27)
    1214                            .dwattr $C$DW$81, DW_AT_name("name")
    1215                            .dwattr $C$DW$81, DW_AT_TI_symbol_name("name")
    1216                            .dwattr $C$DW$81, DW_AT_data_member_location[DW_OP_plus_uconst 0x0]
    1217                            .dwattr $C$DW$81, DW_AT_accessibility(DW_ACCESS_public)
    1218                            .dwattr $C$DW$81, DW_AT_decl_file("../Tasks/Task_ReportData.c")
    1219                            .dwattr $C$DW$81, DW_AT_decl_line(0x19)
    1220                            .dwattr $C$DW$81, DW_AT_decl_column(0x07)
    1221                    $C$DW$82        .dwtag  DW_TAG_member
    1222                            .dwattr $C$DW$82, DW_AT_type(*$C$DW$T$28)
    1223                            .dwattr $C$DW$82, DW_AT_name("id")
    1224                            .dwattr $C$DW$82, DW_AT_TI_symbol_name("id")
    1225                            .dwattr $C$DW$82, DW_AT_data_member_location[DW_OP_plus_uconst 0x14]
    1226                            .dwattr $C$DW$82, DW_AT_accessibility(DW_ACCESS_public)
    1227                            .dwattr $C$DW$82, DW_AT_decl_file("../Tasks/Task_ReportData.c")
    1228                            .dwattr $C$DW$82, DW_AT_decl_line(0x1a)
    1229                            .dwattr $C$DW$82, DW_AT_decl_column(0x0b)
    1230                    $C$DW$83        .dwtag  DW_TAG_member
    1231                            .dwattr $C$DW$83, DW_AT_type(*$C$DW$T$28)
    1232                            .dwattr $C$DW$83, DW_AT_name("time")
    1233                            .dwattr $C$DW$83, DW_AT_TI_symbol_name("time")
    1234                            .dwattr $C$DW$83, DW_AT_data_member_location[DW_OP_plus_uconst 0x18]
    1235                            .dwattr $C$DW$83, DW_AT_accessibility(DW_ACCESS_public)
    1236                            .dwattr $C$DW$83, DW_AT_decl_file("../Tasks/Task_ReportData.c")
    1237                            .dwattr $C$DW$83, DW_AT_decl_line(0x1b)
    1238                            .dwattr $C$DW$83, DW_AT_decl_column(0x0b)
    1239                    $C$DW$84        .dwtag  DW_TAG_member
    1240                            .dwattr $C$DW$84, DW_AT_type(*$C$DW$T$16)
    1241                            .dwattr $C$DW$84, DW_AT_name("val1")
    1242                            .dwattr $C$DW$84, DW_AT_TI_symbol_name("val1")
    1243                            .dwattr $C$DW$84, DW_AT_data_member_location[DW_OP_plus_uconst 0x1c]
    1244                            .dwattr $C$DW$84, DW_AT_accessibility(DW_ACCESS_public)
    1245                            .dwattr $C$DW$84, DW_AT_decl_file("../Tasks/Task_ReportData.c")
    1246                            .dwattr $C$DW$84, DW_AT_decl_line(0x1c)
TI ARM Assembler PC v5.2.5 Tue Apr 12 16:51:14 2016

Tools Copyright (c) 1996-2015 Texas Instruments Incorporated
Task_ReportData.asm                                                  PAGE   24

    1247                            .dwattr $C$DW$84, DW_AT_decl_column(0x0b)
    1248                            .dwendtag $C$DW$T$29
    1249                    
    1250                            .dwattr $C$DW$T$29, DW_AT_decl_file("../Tasks/Task_ReportData.c")
    1251                            .dwattr $C$DW$T$29, DW_AT_decl_line(0x18)
    1252                            .dwattr $C$DW$T$29, DW_AT_decl_column(0x10)
    1253                    $C$DW$T$152     .dwtag  DW_TAG_typedef, DW_AT_name("dataPacket")
    1254                            .dwattr $C$DW$T$152, DW_AT_type(*$C$DW$T$29)
    1255                            .dwattr $C$DW$T$152, DW_AT_language(DW_LANG_C)
    1256                            .dwattr $C$DW$T$152, DW_AT_decl_file("../Tasks/Task_ReportData.c")
    1257                            .dwattr $C$DW$T$152, DW_AT_decl_line(0x1d)
    1258                            .dwattr $C$DW$T$152, DW_AT_decl_column(0x03)
    1259                    
    1260                    $C$DW$T$34      .dwtag  DW_TAG_structure_type
    1261                            .dwattr $C$DW$T$34, DW_AT_name("xLIST")
    1262                            .dwattr $C$DW$T$34, DW_AT_byte_size(0x14)
    1263                    $C$DW$85        .dwtag  DW_TAG_member
    1264                            .dwattr $C$DW$85, DW_AT_type(*$C$DW$T$30)
    1265                            .dwattr $C$DW$85, DW_AT_name("uxNumberOfItems")
    1266                            .dwattr $C$DW$85, DW_AT_TI_symbol_name("uxNumberOfItems")
    1267                            .dwattr $C$DW$85, DW_AT_data_member_location[DW_OP_plus_uconst 0x0]
    1268                            .dwattr $C$DW$85, DW_AT_accessibility(DW_ACCESS_public)
    1269                            .dwattr $C$DW$85, DW_AT_decl_file("C:\Users\DreyCow\workspace\TI_ARM_Tiva_Projects_EECS_690_Sp
    1270                            .dwattr $C$DW$85, DW_AT_decl_line(0xd0)
    1271                            .dwattr $C$DW$85, DW_AT_decl_column(0x22)
    1272                    $C$DW$86        .dwtag  DW_TAG_member
    1273                            .dwattr $C$DW$86, DW_AT_type(*$C$DW$T$32)
    1274                            .dwattr $C$DW$86, DW_AT_name("pxIndex")
    1275                            .dwattr $C$DW$86, DW_AT_TI_symbol_name("pxIndex")
    1276                            .dwattr $C$DW$86, DW_AT_data_member_location[DW_OP_plus_uconst 0x4]
    1277                            .dwattr $C$DW$86, DW_AT_accessibility(DW_ACCESS_public)
    1278                            .dwattr $C$DW$86, DW_AT_decl_file("C:\Users\DreyCow\workspace\TI_ARM_Tiva_Projects_EECS_690_Sp
    1279                            .dwattr $C$DW$86, DW_AT_decl_line(0xd1)
    1280                            .dwattr $C$DW$86, DW_AT_decl_column(0x23)
    1281                    $C$DW$87        .dwtag  DW_TAG_member
    1282                            .dwattr $C$DW$87, DW_AT_type(*$C$DW$T$33)
    1283                            .dwattr $C$DW$87, DW_AT_name("xListEnd")
    1284                            .dwattr $C$DW$87, DW_AT_TI_symbol_name("xListEnd")
    1285                            .dwattr $C$DW$87, DW_AT_data_member_location[DW_OP_plus_uconst 0x8]
    1286                            .dwattr $C$DW$87, DW_AT_accessibility(DW_ACCESS_public)
    1287                            .dwattr $C$DW$87, DW_AT_decl_file("C:\Users\DreyCow\workspace\TI_ARM_Tiva_Projects_EECS_690_Sp
    1288                            .dwattr $C$DW$87, DW_AT_decl_line(0xd2)
    1289                            .dwattr $C$DW$87, DW_AT_decl_column(0x11)
    1290                            .dwendtag $C$DW$T$34
    1291                    
    1292                            .dwattr $C$DW$T$34, DW_AT_decl_file("C:\Users\DreyCow\workspace\TI_ARM_Tiva_Projects_EECS_690_
    1293                            .dwattr $C$DW$T$34, DW_AT_decl_line(0xcd)
    1294                            .dwattr $C$DW$T$34, DW_AT_decl_column(0x10)
    1295                    $C$DW$T$154     .dwtag  DW_TAG_typedef, DW_AT_name("List_t")
    1296                            .dwattr $C$DW$T$154, DW_AT_type(*$C$DW$T$34)
    1297                            .dwattr $C$DW$T$154, DW_AT_language(DW_LANG_C)
    1298                            .dwattr $C$DW$T$154, DW_AT_decl_file("C:\Users\DreyCow\workspace\TI_ARM_Tiva_Projects_EECS_690
    1299                            .dwattr $C$DW$T$154, DW_AT_decl_line(0xd4)
    1300                            .dwattr $C$DW$T$154, DW_AT_decl_column(0x03)
    1301                    
TI ARM Assembler PC v5.2.5 Tue Apr 12 16:51:14 2016

Tools Copyright (c) 1996-2015 Texas Instruments Incorporated
Task_ReportData.asm                                                  PAGE   25

    1302                    $C$DW$T$37      .dwtag  DW_TAG_structure_type
    1303                            .dwattr $C$DW$T$37, DW_AT_name("xLIST_ITEM")
    1304                            .dwattr $C$DW$T$37, DW_AT_byte_size(0x14)
    1305                    $C$DW$88        .dwtag  DW_TAG_member
    1306                            .dwattr $C$DW$88, DW_AT_type(*$C$DW$T$35)
    1307                            .dwattr $C$DW$88, DW_AT_name("xItemValue")
    1308                            .dwattr $C$DW$88, DW_AT_TI_symbol_name("xItemValue")
    1309                            .dwattr $C$DW$88, DW_AT_data_member_location[DW_OP_plus_uconst 0x0]
    1310                            .dwattr $C$DW$88, DW_AT_accessibility(DW_ACCESS_public)
    1311                            .dwattr $C$DW$88, DW_AT_decl_file("C:\Users\DreyCow\workspace\TI_ARM_Tiva_Projects_EECS_690_Sp
    1312                            .dwattr $C$DW$88, DW_AT_decl_line(0xb8)
    1313                            .dwattr $C$DW$88, DW_AT_decl_column(0x21)
    1314                    $C$DW$89        .dwtag  DW_TAG_member
    1315                            .dwattr $C$DW$89, DW_AT_type(*$C$DW$T$36)
    1316                            .dwattr $C$DW$89, DW_AT_name("pxNext")
    1317                            .dwattr $C$DW$89, DW_AT_TI_symbol_name("pxNext")
    1318                            .dwattr $C$DW$89, DW_AT_data_member_location[DW_OP_plus_uconst 0x4]
    1319                            .dwattr $C$DW$89, DW_AT_accessibility(DW_ACCESS_public)
    1320                            .dwattr $C$DW$89, DW_AT_decl_file("C:\Users\DreyCow\workspace\TI_ARM_Tiva_Projects_EECS_690_Sp
    1321                            .dwattr $C$DW$89, DW_AT_decl_line(0xb9)
    1322                            .dwattr $C$DW$89, DW_AT_decl_column(0x2a)
    1323                    $C$DW$90        .dwtag  DW_TAG_member
    1324                            .dwattr $C$DW$90, DW_AT_type(*$C$DW$T$36)
    1325                            .dwattr $C$DW$90, DW_AT_name("pxPrevious")
    1326                            .dwattr $C$DW$90, DW_AT_TI_symbol_name("pxPrevious")
    1327                            .dwattr $C$DW$90, DW_AT_data_member_location[DW_OP_plus_uconst 0x8]
    1328                            .dwattr $C$DW$90, DW_AT_accessibility(DW_ACCESS_public)
    1329                            .dwattr $C$DW$90, DW_AT_decl_file("C:\Users\DreyCow\workspace\TI_ARM_Tiva_Projects_EECS_690_Sp
    1330                            .dwattr $C$DW$90, DW_AT_decl_line(0xba)
    1331                            .dwattr $C$DW$90, DW_AT_decl_column(0x2a)
    1332                    $C$DW$91        .dwtag  DW_TAG_member
    1333                            .dwattr $C$DW$91, DW_AT_type(*$C$DW$T$3)
    1334                            .dwattr $C$DW$91, DW_AT_name("pvOwner")
    1335                            .dwattr $C$DW$91, DW_AT_TI_symbol_name("pvOwner")
    1336                            .dwattr $C$DW$91, DW_AT_data_member_location[DW_OP_plus_uconst 0xc]
    1337                            .dwattr $C$DW$91, DW_AT_accessibility(DW_ACCESS_public)
    1338                            .dwattr $C$DW$91, DW_AT_decl_file("C:\Users\DreyCow\workspace\TI_ARM_Tiva_Projects_EECS_690_Sp
    1339                            .dwattr $C$DW$91, DW_AT_decl_line(0xbb)
    1340                            .dwattr $C$DW$91, DW_AT_decl_column(0x09)
    1341                    $C$DW$92        .dwtag  DW_TAG_member
    1342                            .dwattr $C$DW$92, DW_AT_type(*$C$DW$T$3)
    1343                            .dwattr $C$DW$92, DW_AT_name("pvContainer")
    1344                            .dwattr $C$DW$92, DW_AT_TI_symbol_name("pvContainer")
    1345                            .dwattr $C$DW$92, DW_AT_data_member_location[DW_OP_plus_uconst 0x10]
    1346                            .dwattr $C$DW$92, DW_AT_accessibility(DW_ACCESS_public)
    1347                            .dwattr $C$DW$92, DW_AT_decl_file("C:\Users\DreyCow\workspace\TI_ARM_Tiva_Projects_EECS_690_Sp
    1348                            .dwattr $C$DW$92, DW_AT_decl_line(0xbc)
    1349                            .dwattr $C$DW$92, DW_AT_decl_column(0x1d)
    1350                            .dwendtag $C$DW$T$37
    1351                    
    1352                            .dwattr $C$DW$T$37, DW_AT_decl_file("C:\Users\DreyCow\workspace\TI_ARM_Tiva_Projects_EECS_690_
    1353                            .dwattr $C$DW$T$37, DW_AT_decl_line(0xb5)
    1354                            .dwattr $C$DW$T$37, DW_AT_decl_column(0x08)
    1355                    $C$DW$T$31      .dwtag  DW_TAG_typedef, DW_AT_name("ListItem_t")
    1356                            .dwattr $C$DW$T$31, DW_AT_type(*$C$DW$T$37)
TI ARM Assembler PC v5.2.5 Tue Apr 12 16:51:14 2016

Tools Copyright (c) 1996-2015 Texas Instruments Incorporated
Task_ReportData.asm                                                  PAGE   26

    1357                            .dwattr $C$DW$T$31, DW_AT_language(DW_LANG_C)
    1358                            .dwattr $C$DW$T$31, DW_AT_decl_file("C:\Users\DreyCow\workspace\TI_ARM_Tiva_Projects_EECS_690_
    1359                            .dwattr $C$DW$T$31, DW_AT_decl_line(0xbf)
    1360                            .dwattr $C$DW$T$31, DW_AT_decl_column(0x1b)
    1361                    $C$DW$T$32      .dwtag  DW_TAG_pointer_type
    1362                            .dwattr $C$DW$T$32, DW_AT_type(*$C$DW$T$31)
    1363                            .dwattr $C$DW$T$32, DW_AT_address_class(0x20)
    1364                    $C$DW$T$36      .dwtag  DW_TAG_pointer_type
    1365                            .dwattr $C$DW$T$36, DW_AT_type(*$C$DW$T$37)
    1366                            .dwattr $C$DW$T$36, DW_AT_address_class(0x20)
    1367                    
    1368                    $C$DW$T$38      .dwtag  DW_TAG_structure_type
    1369                            .dwattr $C$DW$T$38, DW_AT_name("xMEMORY_REGION")
    1370                            .dwattr $C$DW$T$38, DW_AT_byte_size(0x0c)
    1371                    $C$DW$93        .dwtag  DW_TAG_member
    1372                            .dwattr $C$DW$93, DW_AT_type(*$C$DW$T$3)
    1373                            .dwattr $C$DW$93, DW_AT_name("pvBaseAddress")
    1374                            .dwattr $C$DW$93, DW_AT_TI_symbol_name("pvBaseAddress")
    1375                            .dwattr $C$DW$93, DW_AT_data_member_location[DW_OP_plus_uconst 0x0]
    1376                            .dwattr $C$DW$93, DW_AT_accessibility(DW_ACCESS_public)
    1377                            .dwattr $C$DW$93, DW_AT_decl_file("C:/Users/DreyCow/workspace/TI_ARM_Tiva_Projects_EECS_690_Sp
    1378                            .dwattr $C$DW$93, DW_AT_decl_line(0x91)
    1379                            .dwattr $C$DW$93, DW_AT_decl_column(0x08)
    1380                    $C$DW$94        .dwtag  DW_TAG_member
    1381                            .dwattr $C$DW$94, DW_AT_type(*$C$DW$T$28)
    1382                            .dwattr $C$DW$94, DW_AT_name("ulLengthInBytes")
    1383                            .dwattr $C$DW$94, DW_AT_TI_symbol_name("ulLengthInBytes")
    1384                            .dwattr $C$DW$94, DW_AT_data_member_location[DW_OP_plus_uconst 0x4]
    1385                            .dwattr $C$DW$94, DW_AT_accessibility(DW_ACCESS_public)
    1386                            .dwattr $C$DW$94, DW_AT_decl_file("C:/Users/DreyCow/workspace/TI_ARM_Tiva_Projects_EECS_690_Sp
    1387                            .dwattr $C$DW$94, DW_AT_decl_line(0x92)
    1388                            .dwattr $C$DW$94, DW_AT_decl_column(0x0b)
    1389                    $C$DW$95        .dwtag  DW_TAG_member
    1390                            .dwattr $C$DW$95, DW_AT_type(*$C$DW$T$28)
    1391                            .dwattr $C$DW$95, DW_AT_name("ulParameters")
    1392                            .dwattr $C$DW$95, DW_AT_TI_symbol_name("ulParameters")
    1393                            .dwattr $C$DW$95, DW_AT_data_member_location[DW_OP_plus_uconst 0x8]
    1394                            .dwattr $C$DW$95, DW_AT_accessibility(DW_ACCESS_public)
    1395                            .dwattr $C$DW$95, DW_AT_decl_file("C:/Users/DreyCow/workspace/TI_ARM_Tiva_Projects_EECS_690_Sp
    1396                            .dwattr $C$DW$95, DW_AT_decl_line(0x93)
    1397                            .dwattr $C$DW$95, DW_AT_decl_column(0x0b)
    1398                            .dwendtag $C$DW$T$38
    1399                    
    1400                            .dwattr $C$DW$T$38, DW_AT_decl_file("C:/Users/DreyCow/workspace/TI_ARM_Tiva_Projects_EECS_690_
    1401                            .dwattr $C$DW$T$38, DW_AT_decl_line(0x8f)
    1402                            .dwattr $C$DW$T$38, DW_AT_decl_column(0x10)
    1403                    $C$DW$T$49      .dwtag  DW_TAG_typedef, DW_AT_name("MemoryRegion_t")
    1404                            .dwattr $C$DW$T$49, DW_AT_type(*$C$DW$T$38)
    1405                            .dwattr $C$DW$T$49, DW_AT_language(DW_LANG_C)
    1406                            .dwattr $C$DW$T$49, DW_AT_decl_file("C:/Users/DreyCow/workspace/TI_ARM_Tiva_Projects_EECS_690_
    1407                            .dwattr $C$DW$T$49, DW_AT_decl_line(0x94)
    1408                            .dwattr $C$DW$T$49, DW_AT_decl_column(0x03)
    1409                    
    1410                    $C$DW$T$50      .dwtag  DW_TAG_array_type
    1411                            .dwattr $C$DW$T$50, DW_AT_type(*$C$DW$T$49)
TI ARM Assembler PC v5.2.5 Tue Apr 12 16:51:14 2016

Tools Copyright (c) 1996-2015 Texas Instruments Incorporated
Task_ReportData.asm                                                  PAGE   27

    1412                            .dwattr $C$DW$T$50, DW_AT_language(DW_LANG_C)
    1413                            .dwattr $C$DW$T$50, DW_AT_byte_size(0x0c)
    1414                    $C$DW$96        .dwtag  DW_TAG_subrange_type
    1415                            .dwattr $C$DW$96, DW_AT_upper_bound(0x00)
    1416                            .dwendtag $C$DW$T$50
    1417                    
    1418                    
    1419                    $C$DW$T$39      .dwtag  DW_TAG_structure_type
    1420                            .dwattr $C$DW$T$39, DW_AT_name("xMINI_LIST_ITEM")
    1421                            .dwattr $C$DW$T$39, DW_AT_byte_size(0x0c)
    1422                    $C$DW$97        .dwtag  DW_TAG_member
    1423                            .dwattr $C$DW$97, DW_AT_type(*$C$DW$T$35)
    1424                            .dwattr $C$DW$97, DW_AT_name("xItemValue")
    1425                            .dwattr $C$DW$97, DW_AT_TI_symbol_name("xItemValue")
    1426                            .dwattr $C$DW$97, DW_AT_data_member_location[DW_OP_plus_uconst 0x0]
    1427                            .dwattr $C$DW$97, DW_AT_accessibility(DW_ACCESS_public)
    1428                            .dwattr $C$DW$97, DW_AT_decl_file("C:\Users\DreyCow\workspace\TI_ARM_Tiva_Projects_EECS_690_Sp
    1429                            .dwattr $C$DW$97, DW_AT_decl_line(0xc4)
    1430                            .dwattr $C$DW$97, DW_AT_decl_column(0x21)
    1431                    $C$DW$98        .dwtag  DW_TAG_member
    1432                            .dwattr $C$DW$98, DW_AT_type(*$C$DW$T$36)
    1433                            .dwattr $C$DW$98, DW_AT_name("pxNext")
    1434                            .dwattr $C$DW$98, DW_AT_TI_symbol_name("pxNext")
    1435                            .dwattr $C$DW$98, DW_AT_data_member_location[DW_OP_plus_uconst 0x4]
    1436                            .dwattr $C$DW$98, DW_AT_accessibility(DW_ACCESS_public)
    1437                            .dwattr $C$DW$98, DW_AT_decl_file("C:\Users\DreyCow\workspace\TI_ARM_Tiva_Projects_EECS_690_Sp
    1438                            .dwattr $C$DW$98, DW_AT_decl_line(0xc5)
    1439                            .dwattr $C$DW$98, DW_AT_decl_column(0x2a)
    1440                    $C$DW$99        .dwtag  DW_TAG_member
    1441                            .dwattr $C$DW$99, DW_AT_type(*$C$DW$T$36)
    1442                            .dwattr $C$DW$99, DW_AT_name("pxPrevious")
    1443                            .dwattr $C$DW$99, DW_AT_TI_symbol_name("pxPrevious")
    1444                            .dwattr $C$DW$99, DW_AT_data_member_location[DW_OP_plus_uconst 0x8]
    1445                            .dwattr $C$DW$99, DW_AT_accessibility(DW_ACCESS_public)
    1446                            .dwattr $C$DW$99, DW_AT_decl_file("C:\Users\DreyCow\workspace\TI_ARM_Tiva_Projects_EECS_690_Sp
    1447                            .dwattr $C$DW$99, DW_AT_decl_line(0xc6)
    1448                            .dwattr $C$DW$99, DW_AT_decl_column(0x2a)
    1449                            .dwendtag $C$DW$T$39
    1450                    
    1451                            .dwattr $C$DW$T$39, DW_AT_decl_file("C:\Users\DreyCow\workspace\TI_ARM_Tiva_Projects_EECS_690_
    1452                            .dwattr $C$DW$T$39, DW_AT_decl_line(0xc1)
    1453                            .dwattr $C$DW$T$39, DW_AT_decl_column(0x08)
    1454                    $C$DW$T$33      .dwtag  DW_TAG_typedef, DW_AT_name("MiniListItem_t")
    1455                            .dwattr $C$DW$T$33, DW_AT_type(*$C$DW$T$39)
    1456                            .dwattr $C$DW$T$33, DW_AT_language(DW_LANG_C)
    1457                            .dwattr $C$DW$T$33, DW_AT_decl_file("C:\Users\DreyCow\workspace\TI_ARM_Tiva_Projects_EECS_690_
    1458                            .dwattr $C$DW$T$33, DW_AT_decl_line(0xc8)
    1459                            .dwattr $C$DW$T$33, DW_AT_decl_column(0x20)
    1460                    
    1461                    $C$DW$T$51      .dwtag  DW_TAG_structure_type
    1462                            .dwattr $C$DW$T$51, DW_AT_name("xTASK_PARAMETERS")
    1463                            .dwattr $C$DW$T$51, DW_AT_byte_size(0x24)
    1464                    $C$DW$100       .dwtag  DW_TAG_member
    1465                            .dwattr $C$DW$100, DW_AT_type(*$C$DW$T$42)
    1466                            .dwattr $C$DW$100, DW_AT_name("pvTaskCode")
TI ARM Assembler PC v5.2.5 Tue Apr 12 16:51:14 2016

Tools Copyright (c) 1996-2015 Texas Instruments Incorporated
Task_ReportData.asm                                                  PAGE   28

    1467                            .dwattr $C$DW$100, DW_AT_TI_symbol_name("pvTaskCode")
    1468                            .dwattr $C$DW$100, DW_AT_data_member_location[DW_OP_plus_uconst 0x0]
    1469                            .dwattr $C$DW$100, DW_AT_accessibility(DW_ACCESS_public)
    1470                            .dwattr $C$DW$100, DW_AT_decl_file("C:/Users/DreyCow/workspace/TI_ARM_Tiva_Projects_EECS_690_S
    1471                            .dwattr $C$DW$100, DW_AT_decl_line(0x9b)
    1472                            .dwattr $C$DW$100, DW_AT_decl_column(0x11)
    1473                    $C$DW$101       .dwtag  DW_TAG_member
    1474                            .dwattr $C$DW$101, DW_AT_type(*$C$DW$T$45)
    1475                            .dwattr $C$DW$101, DW_AT_name("pcName")
    1476                            .dwattr $C$DW$101, DW_AT_TI_symbol_name("pcName")
    1477                            .dwattr $C$DW$101, DW_AT_data_member_location[DW_OP_plus_uconst 0x4]
    1478                            .dwattr $C$DW$101, DW_AT_accessibility(DW_ACCESS_public)
    1479                            .dwattr $C$DW$101, DW_AT_decl_file("C:/Users/DreyCow/workspace/TI_ARM_Tiva_Projects_EECS_690_S
    1480                            .dwattr $C$DW$101, DW_AT_decl_line(0x9c)
    1481                            .dwattr $C$DW$101, DW_AT_decl_column(0x15)
    1482                    $C$DW$102       .dwtag  DW_TAG_member
    1483                            .dwattr $C$DW$102, DW_AT_type(*$C$DW$T$46)
    1484                            .dwattr $C$DW$102, DW_AT_name("usStackDepth")
    1485                            .dwattr $C$DW$102, DW_AT_TI_symbol_name("usStackDepth")
    1486                            .dwattr $C$DW$102, DW_AT_data_member_location[DW_OP_plus_uconst 0x8]
    1487                            .dwattr $C$DW$102, DW_AT_accessibility(DW_ACCESS_public)
    1488                            .dwattr $C$DW$102, DW_AT_decl_file("C:/Users/DreyCow/workspace/TI_ARM_Tiva_Projects_EECS_690_S
    1489                            .dwattr $C$DW$102, DW_AT_decl_line(0x9d)
    1490                            .dwattr $C$DW$102, DW_AT_decl_column(0x0b)
    1491                    $C$DW$103       .dwtag  DW_TAG_member
    1492                            .dwattr $C$DW$103, DW_AT_type(*$C$DW$T$3)
    1493                            .dwattr $C$DW$103, DW_AT_name("pvParameters")
    1494                            .dwattr $C$DW$103, DW_AT_TI_symbol_name("pvParameters")
    1495                            .dwattr $C$DW$103, DW_AT_data_member_location[DW_OP_plus_uconst 0xc]
    1496                            .dwattr $C$DW$103, DW_AT_accessibility(DW_ACCESS_public)
    1497                            .dwattr $C$DW$103, DW_AT_decl_file("C:/Users/DreyCow/workspace/TI_ARM_Tiva_Projects_EECS_690_S
    1498                            .dwattr $C$DW$103, DW_AT_decl_line(0x9e)
    1499                            .dwattr $C$DW$103, DW_AT_decl_column(0x08)
    1500                    $C$DW$104       .dwtag  DW_TAG_member
    1501                            .dwattr $C$DW$104, DW_AT_type(*$C$DW$T$30)
    1502                            .dwattr $C$DW$104, DW_AT_name("uxPriority")
    1503                            .dwattr $C$DW$104, DW_AT_TI_symbol_name("uxPriority")
    1504                            .dwattr $C$DW$104, DW_AT_data_member_location[DW_OP_plus_uconst 0x10]
    1505                            .dwattr $C$DW$104, DW_AT_accessibility(DW_ACCESS_public)
    1506                            .dwattr $C$DW$104, DW_AT_decl_file("C:/Users/DreyCow/workspace/TI_ARM_Tiva_Projects_EECS_690_S
    1507                            .dwattr $C$DW$104, DW_AT_decl_line(0x9f)
    1508                            .dwattr $C$DW$104, DW_AT_decl_column(0x0e)
    1509                    $C$DW$105       .dwtag  DW_TAG_member
    1510                            .dwattr $C$DW$105, DW_AT_type(*$C$DW$T$48)
    1511                            .dwattr $C$DW$105, DW_AT_name("puxStackBuffer")
    1512                            .dwattr $C$DW$105, DW_AT_TI_symbol_name("puxStackBuffer")
    1513                            .dwattr $C$DW$105, DW_AT_data_member_location[DW_OP_plus_uconst 0x14]
    1514                            .dwattr $C$DW$105, DW_AT_accessibility(DW_ACCESS_public)
    1515                            .dwattr $C$DW$105, DW_AT_decl_file("C:/Users/DreyCow/workspace/TI_ARM_Tiva_Projects_EECS_690_S
    1516                            .dwattr $C$DW$105, DW_AT_decl_line(0xa0)
    1517                            .dwattr $C$DW$105, DW_AT_decl_column(0x0f)
    1518                    $C$DW$106       .dwtag  DW_TAG_member
    1519                            .dwattr $C$DW$106, DW_AT_type(*$C$DW$T$50)
    1520                            .dwattr $C$DW$106, DW_AT_name("xRegions")
    1521                            .dwattr $C$DW$106, DW_AT_TI_symbol_name("xRegions")
TI ARM Assembler PC v5.2.5 Tue Apr 12 16:51:14 2016

Tools Copyright (c) 1996-2015 Texas Instruments Incorporated
Task_ReportData.asm                                                  PAGE   29

    1522                            .dwattr $C$DW$106, DW_AT_data_member_location[DW_OP_plus_uconst 0x18]
    1523                            .dwattr $C$DW$106, DW_AT_accessibility(DW_ACCESS_public)
    1524                            .dwattr $C$DW$106, DW_AT_decl_file("C:/Users/DreyCow/workspace/TI_ARM_Tiva_Projects_EECS_690_S
    1525                            .dwattr $C$DW$106, DW_AT_decl_line(0xa1)
    1526                            .dwattr $C$DW$106, DW_AT_decl_column(0x11)
    1527                            .dwendtag $C$DW$T$51
    1528                    
    1529                            .dwattr $C$DW$T$51, DW_AT_decl_file("C:/Users/DreyCow/workspace/TI_ARM_Tiva_Projects_EECS_690_
    1530                            .dwattr $C$DW$T$51, DW_AT_decl_line(0x99)
    1531                            .dwattr $C$DW$T$51, DW_AT_decl_column(0x10)
    1532                    $C$DW$T$155     .dwtag  DW_TAG_typedef, DW_AT_name("TaskParameters_t")
    1533                            .dwattr $C$DW$T$155, DW_AT_type(*$C$DW$T$51)
    1534                            .dwattr $C$DW$T$155, DW_AT_language(DW_LANG_C)
    1535                            .dwattr $C$DW$T$155, DW_AT_decl_file("C:/Users/DreyCow/workspace/TI_ARM_Tiva_Projects_EECS_690
    1536                            .dwattr $C$DW$T$155, DW_AT_decl_line(0xa2)
    1537                            .dwattr $C$DW$T$155, DW_AT_decl_column(0x03)
    1538                    
    1539                    $C$DW$T$55      .dwtag  DW_TAG_structure_type
    1540                            .dwattr $C$DW$T$55, DW_AT_name("xTASK_STATUS")
    1541                            .dwattr $C$DW$T$55, DW_AT_byte_size(0x20)
    1542                    $C$DW$107       .dwtag  DW_TAG_member
    1543                            .dwattr $C$DW$107, DW_AT_type(*$C$DW$T$52)
    1544                            .dwattr $C$DW$107, DW_AT_name("xHandle")
    1545                            .dwattr $C$DW$107, DW_AT_TI_symbol_name("xHandle")
    1546                            .dwattr $C$DW$107, DW_AT_data_member_location[DW_OP_plus_uconst 0x0]
    1547                            .dwattr $C$DW$107, DW_AT_accessibility(DW_ACCESS_public)
    1548                            .dwattr $C$DW$107, DW_AT_decl_file("C:/Users/DreyCow/workspace/TI_ARM_Tiva_Projects_EECS_690_S
    1549                            .dwattr $C$DW$107, DW_AT_decl_line(0xa8)
    1550                            .dwattr $C$DW$107, DW_AT_decl_column(0x0f)
    1551                    $C$DW$108       .dwtag  DW_TAG_member
    1552                            .dwattr $C$DW$108, DW_AT_type(*$C$DW$T$44)
    1553                            .dwattr $C$DW$108, DW_AT_name("pcTaskName")
    1554                            .dwattr $C$DW$108, DW_AT_TI_symbol_name("pcTaskName")
    1555                            .dwattr $C$DW$108, DW_AT_data_member_location[DW_OP_plus_uconst 0x4]
    1556                            .dwattr $C$DW$108, DW_AT_accessibility(DW_ACCESS_public)
    1557                            .dwattr $C$DW$108, DW_AT_decl_file("C:/Users/DreyCow/workspace/TI_ARM_Tiva_Projects_EECS_690_S
    1558                            .dwattr $C$DW$108, DW_AT_decl_line(0xa9)
    1559                            .dwattr $C$DW$108, DW_AT_decl_column(0x0e)
    1560                    $C$DW$109       .dwtag  DW_TAG_member
    1561                            .dwattr $C$DW$109, DW_AT_type(*$C$DW$T$30)
    1562                            .dwattr $C$DW$109, DW_AT_name("xTaskNumber")
    1563                            .dwattr $C$DW$109, DW_AT_TI_symbol_name("xTaskNumber")
    1564                            .dwattr $C$DW$109, DW_AT_data_member_location[DW_OP_plus_uconst 0x8]
    1565                            .dwattr $C$DW$109, DW_AT_accessibility(DW_ACCESS_public)
    1566                            .dwattr $C$DW$109, DW_AT_decl_file("C:/Users/DreyCow/workspace/TI_ARM_Tiva_Projects_EECS_690_S
    1567                            .dwattr $C$DW$109, DW_AT_decl_line(0xaa)
    1568                            .dwattr $C$DW$109, DW_AT_decl_column(0x0e)
    1569                    $C$DW$110       .dwtag  DW_TAG_member
    1570                            .dwattr $C$DW$110, DW_AT_type(*$C$DW$T$54)
    1571                            .dwattr $C$DW$110, DW_AT_name("eCurrentState")
    1572                            .dwattr $C$DW$110, DW_AT_TI_symbol_name("eCurrentState")
    1573                            .dwattr $C$DW$110, DW_AT_data_member_location[DW_OP_plus_uconst 0xc]
    1574                            .dwattr $C$DW$110, DW_AT_accessibility(DW_ACCESS_public)
    1575                            .dwattr $C$DW$110, DW_AT_decl_file("C:/Users/DreyCow/workspace/TI_ARM_Tiva_Projects_EECS_690_S
    1576                            .dwattr $C$DW$110, DW_AT_decl_line(0xab)
TI ARM Assembler PC v5.2.5 Tue Apr 12 16:51:14 2016

Tools Copyright (c) 1996-2015 Texas Instruments Incorporated
Task_ReportData.asm                                                  PAGE   30

    1577                            .dwattr $C$DW$110, DW_AT_decl_column(0x0d)
    1578                    $C$DW$111       .dwtag  DW_TAG_member
    1579                            .dwattr $C$DW$111, DW_AT_type(*$C$DW$T$30)
    1580                            .dwattr $C$DW$111, DW_AT_name("uxCurrentPriority")
    1581                            .dwattr $C$DW$111, DW_AT_TI_symbol_name("uxCurrentPriority")
    1582                            .dwattr $C$DW$111, DW_AT_data_member_location[DW_OP_plus_uconst 0x10]
    1583                            .dwattr $C$DW$111, DW_AT_accessibility(DW_ACCESS_public)
    1584                            .dwattr $C$DW$111, DW_AT_decl_file("C:/Users/DreyCow/workspace/TI_ARM_Tiva_Projects_EECS_690_S
    1585                            .dwattr $C$DW$111, DW_AT_decl_line(0xac)
    1586                            .dwattr $C$DW$111, DW_AT_decl_column(0x0e)
    1587                    $C$DW$112       .dwtag  DW_TAG_member
    1588                            .dwattr $C$DW$112, DW_AT_type(*$C$DW$T$30)
    1589                            .dwattr $C$DW$112, DW_AT_name("uxBasePriority")
    1590                            .dwattr $C$DW$112, DW_AT_TI_symbol_name("uxBasePriority")
    1591                            .dwattr $C$DW$112, DW_AT_data_member_location[DW_OP_plus_uconst 0x14]
    1592                            .dwattr $C$DW$112, DW_AT_accessibility(DW_ACCESS_public)
    1593                            .dwattr $C$DW$112, DW_AT_decl_file("C:/Users/DreyCow/workspace/TI_ARM_Tiva_Projects_EECS_690_S
    1594                            .dwattr $C$DW$112, DW_AT_decl_line(0xad)
    1595                            .dwattr $C$DW$112, DW_AT_decl_column(0x0e)
    1596                    $C$DW$113       .dwtag  DW_TAG_member
    1597                            .dwattr $C$DW$113, DW_AT_type(*$C$DW$T$28)
    1598                            .dwattr $C$DW$113, DW_AT_name("ulRunTimeCounter")
    1599                            .dwattr $C$DW$113, DW_AT_TI_symbol_name("ulRunTimeCounter")
    1600                            .dwattr $C$DW$113, DW_AT_data_member_location[DW_OP_plus_uconst 0x18]
    1601                            .dwattr $C$DW$113, DW_AT_accessibility(DW_ACCESS_public)
    1602                            .dwattr $C$DW$113, DW_AT_decl_file("C:/Users/DreyCow/workspace/TI_ARM_Tiva_Projects_EECS_690_S
    1603                            .dwattr $C$DW$113, DW_AT_decl_line(0xae)
    1604                            .dwattr $C$DW$113, DW_AT_decl_column(0x0b)
    1605                    $C$DW$114       .dwtag  DW_TAG_member
    1606                            .dwattr $C$DW$114, DW_AT_type(*$C$DW$T$46)
    1607                            .dwattr $C$DW$114, DW_AT_name("usStackHighWaterMark")
    1608                            .dwattr $C$DW$114, DW_AT_TI_symbol_name("usStackHighWaterMark")
    1609                            .dwattr $C$DW$114, DW_AT_data_member_location[DW_OP_plus_uconst 0x1c]
    1610                            .dwattr $C$DW$114, DW_AT_accessibility(DW_ACCESS_public)
    1611                            .dwattr $C$DW$114, DW_AT_decl_file("C:/Users/DreyCow/workspace/TI_ARM_Tiva_Projects_EECS_690_S
    1612                            .dwattr $C$DW$114, DW_AT_decl_line(0xaf)
    1613                            .dwattr $C$DW$114, DW_AT_decl_column(0x0b)
    1614                            .dwendtag $C$DW$T$55
    1615                    
    1616                            .dwattr $C$DW$T$55, DW_AT_decl_file("C:/Users/DreyCow/workspace/TI_ARM_Tiva_Projects_EECS_690_
    1617                            .dwattr $C$DW$T$55, DW_AT_decl_line(0xa6)
    1618                            .dwattr $C$DW$T$55, DW_AT_decl_column(0x10)
    1619                    $C$DW$T$156     .dwtag  DW_TAG_typedef, DW_AT_name("TaskStatus_t")
    1620                            .dwattr $C$DW$T$156, DW_AT_type(*$C$DW$T$55)
    1621                            .dwattr $C$DW$T$156, DW_AT_language(DW_LANG_C)
    1622                            .dwattr $C$DW$T$156, DW_AT_decl_file("C:/Users/DreyCow/workspace/TI_ARM_Tiva_Projects_EECS_690
    1623                            .dwattr $C$DW$T$156, DW_AT_decl_line(0xb0)
    1624                            .dwattr $C$DW$T$156, DW_AT_decl_column(0x03)
    1625                    
    1626                    $C$DW$T$58      .dwtag  DW_TAG_structure_type
    1627                            .dwattr $C$DW$T$58, DW_AT_name("xTIME_OUT")
    1628                            .dwattr $C$DW$T$58, DW_AT_byte_size(0x08)
    1629                    $C$DW$115       .dwtag  DW_TAG_member
    1630                            .dwattr $C$DW$115, DW_AT_type(*$C$DW$T$57)
    1631                            .dwattr $C$DW$115, DW_AT_name("xOverflowCount")
TI ARM Assembler PC v5.2.5 Tue Apr 12 16:51:14 2016

Tools Copyright (c) 1996-2015 Texas Instruments Incorporated
Task_ReportData.asm                                                  PAGE   31

    1632                            .dwattr $C$DW$115, DW_AT_TI_symbol_name("xOverflowCount")
    1633                            .dwattr $C$DW$115, DW_AT_data_member_location[DW_OP_plus_uconst 0x0]
    1634                            .dwattr $C$DW$115, DW_AT_accessibility(DW_ACCESS_public)
    1635                            .dwattr $C$DW$115, DW_AT_decl_file("C:/Users/DreyCow/workspace/TI_ARM_Tiva_Projects_EECS_690_S
    1636                            .dwattr $C$DW$115, DW_AT_decl_line(0x88)
    1637                            .dwattr $C$DW$115, DW_AT_decl_column(0x0d)
    1638                    $C$DW$116       .dwtag  DW_TAG_member
    1639                            .dwattr $C$DW$116, DW_AT_type(*$C$DW$T$35)
    1640                            .dwattr $C$DW$116, DW_AT_name("xTimeOnEntering")
    1641                            .dwattr $C$DW$116, DW_AT_TI_symbol_name("xTimeOnEntering")
    1642                            .dwattr $C$DW$116, DW_AT_data_member_location[DW_OP_plus_uconst 0x4]
    1643                            .dwattr $C$DW$116, DW_AT_accessibility(DW_ACCESS_public)
    1644                            .dwattr $C$DW$116, DW_AT_decl_file("C:/Users/DreyCow/workspace/TI_ARM_Tiva_Projects_EECS_690_S
    1645                            .dwattr $C$DW$116, DW_AT_decl_line(0x89)
    1646                            .dwattr $C$DW$116, DW_AT_decl_column(0x0d)
    1647                            .dwendtag $C$DW$T$58
    1648                    
    1649                            .dwattr $C$DW$T$58, DW_AT_decl_file("C:/Users/DreyCow/workspace/TI_ARM_Tiva_Projects_EECS_690_
    1650                            .dwattr $C$DW$T$58, DW_AT_decl_line(0x86)
    1651                            .dwattr $C$DW$T$58, DW_AT_decl_column(0x10)
    1652                    $C$DW$T$157     .dwtag  DW_TAG_typedef, DW_AT_name("TimeOut_t")
    1653                            .dwattr $C$DW$T$157, DW_AT_type(*$C$DW$T$58)
    1654                            .dwattr $C$DW$T$157, DW_AT_language(DW_LANG_C)
    1655                            .dwattr $C$DW$T$157, DW_AT_decl_file("C:/Users/DreyCow/workspace/TI_ARM_Tiva_Projects_EECS_690
    1656                            .dwattr $C$DW$T$157, DW_AT_decl_line(0x8a)
    1657                            .dwattr $C$DW$T$157, DW_AT_decl_column(0x03)
    1658                            .dwattr $C$DW$CU, DW_AT_language(DW_LANG_C)
    1659                    
    1660                    ;***************************************************************
    1661                    ;* DWARF CIE ENTRIES                                           *
    1662                    ;***************************************************************
    1663                    
    1664                    $C$DW$CIE       .dwcie 14
    1665                            .dwcfi  cfa_register, 13
    1666                            .dwcfi  cfa_offset, 0
    1667                            .dwcfi  undefined, 0
    1668                            .dwcfi  undefined, 1
    1669                            .dwcfi  undefined, 2
    1670                            .dwcfi  undefined, 3
    1671                            .dwcfi  same_value, 4
    1672                            .dwcfi  same_value, 5
    1673                            .dwcfi  same_value, 6
    1674                            .dwcfi  same_value, 7
    1675                            .dwcfi  same_value, 8
    1676                            .dwcfi  same_value, 9
    1677                            .dwcfi  same_value, 10
    1678                            .dwcfi  same_value, 11
    1679                            .dwcfi  undefined, 12
    1680                            .dwcfi  undefined, 13
    1681                            .dwcfi  undefined, 14
    1682                            .dwcfi  undefined, 14
    1683                            .dwcfi  undefined, 7
    1684                            .dwcfi  undefined, 64
    1685                            .dwcfi  undefined, 65
    1686                            .dwcfi  undefined, 66
TI ARM Assembler PC v5.2.5 Tue Apr 12 16:51:14 2016

Tools Copyright (c) 1996-2015 Texas Instruments Incorporated
Task_ReportData.asm                                                  PAGE   32

    1687                            .dwcfi  undefined, 67
    1688                            .dwcfi  undefined, 68
    1689                            .dwcfi  undefined, 69
    1690                            .dwcfi  undefined, 70
    1691                            .dwcfi  undefined, 71
    1692                            .dwcfi  undefined, 72
    1693                            .dwcfi  undefined, 73
    1694                            .dwcfi  undefined, 74
    1695                            .dwcfi  undefined, 75
    1696                            .dwcfi  undefined, 76
    1697                            .dwcfi  undefined, 77
    1698                            .dwcfi  undefined, 78
    1699                            .dwcfi  undefined, 79
    1700                            .dwcfi  same_value, 80
    1701                            .dwcfi  same_value, 81
    1702                            .dwcfi  same_value, 82
    1703                            .dwcfi  same_value, 83
    1704                            .dwcfi  same_value, 84
    1705                            .dwcfi  same_value, 85
    1706                            .dwcfi  same_value, 86
    1707                            .dwcfi  same_value, 87
    1708                            .dwcfi  same_value, 88
    1709                            .dwcfi  same_value, 89
    1710                            .dwcfi  same_value, 90
    1711                            .dwcfi  same_value, 91
    1712                            .dwcfi  same_value, 92
    1713                            .dwcfi  same_value, 93
    1714                            .dwcfi  same_value, 94
    1715                            .dwcfi  same_value, 95
    1716                            .dwendentry
    1717                            .dwendtag $C$DW$CU
    1718                    

--------------------------
Thumb2 Statistics
--------------------------
Number of Thumb2 ins converted to Thumb = 0 (0%)
Number of Thumb ins in input = 55 (72%)
Number of Thumb2 ins encoded as Thumb2 = 21 (100%)
Number of Thumb2 ins converted to 2 OPND Thumb = 0


No Assembly Errors, No Assembly Warnings
